

Microchip Technology PIC LITE Macro Assembler V1.38 build -256452561 
                                                                                               Thu Sep 08 20:58:33 2016

Microchip Technology Omniscient Code Generator v1.38 (Free mode) build 201607010351
     1                           	processor	16F877A
     2                           	opt	pw 120
     3                           	opt	lm
     4                           	psect	idataBANK0,global,class=CODE,delta=2
     5                           	psect	cinit,global,class=CODE,merge=1,delta=2
     6                           	psect	bitbssCOMMON,global,bit,class=COMMON,space=1,delta=1
     7                           	psect	bssCOMMON,global,class=COMMON,space=1,delta=1
     8                           	psect	bssBANK0,global,class=BANK0,space=1,delta=1
     9                           	psect	dataBANK0,global,class=BANK0,space=1,delta=1
    10                           	psect	clrtext,global,class=CODE,delta=2
    11                           	psect	cstackCOMMON,global,class=COMMON,space=1,delta=1
    12                           	psect	cstackBANK0,global,class=BANK0,space=1,delta=1
    13                           	psect	maintext,global,class=CODE,split=1,delta=2
    14                           	psect	text1,local,class=CODE,merge=1,delta=2
    15                           	psect	text2,local,class=CODE,merge=1,delta=2
    16                           	psect	text3,local,class=CODE,merge=1,delta=2
    17                           	psect	text4,local,class=CODE,merge=1,delta=2
    18                           	psect	text5,local,class=CODE,merge=1,delta=2
    19                           	psect	text6,local,class=CODE,merge=1,delta=2
    20                           	psect	text7,local,class=CODE,merge=1,delta=2
    21                           	psect	text8,local,class=CODE,merge=1,delta=2
    22                           	psect	text9,local,class=CODE,merge=1,delta=2
    23                           	psect	text10,local,class=CODE,merge=1,delta=2
    24                           	psect	text11,local,class=CODE,merge=1,delta=2
    25                           	psect	text12,local,class=CODE,merge=1,delta=2
    26                           	psect	text13,local,class=CODE,merge=1,delta=2
    27                           	psect	text14,local,class=CODE,merge=1,delta=2
    28                           	psect	text15,local,class=CODE,merge=1,delta=2
    29                           	psect	text16,local,class=CODE,merge=1,delta=2
    30                           	psect	text17,local,class=CODE,merge=1,delta=2
    31                           	psect	text18,local,class=CODE,merge=1,delta=2
    32                           	psect	text19,local,class=CODE,merge=1,delta=2
    33                           	psect	text20,local,class=CODE,merge=1,delta=2
    34                           	psect	text21,local,class=CODE,merge=1,delta=2
    35                           	psect	text22,local,class=CODE,merge=1,delta=2
    36                           	psect	text23,local,class=CODE,merge=1,delta=2
    37                           	psect	intentry,global,class=CODE,delta=2
    38                           	psect	text24,local,class=CODE,merge=1,delta=2
    39                           	dabs	1,0x7E,2
    40  0000                     	;# 
    41  0001                     	;# 
    42  0002                     	;# 
    43  0003                     	;# 
    44  0004                     	;# 
    45  0005                     	;# 
    46  0006                     	;# 
    47  0007                     	;# 
    48  0008                     	;# 
    49  0009                     	;# 
    50  000A                     	;# 
    51  000B                     	;# 
    52  000C                     	;# 
    53  000D                     	;# 
    54  000E                     	;# 
    55  000E                     	;# 
    56  000F                     	;# 
    57  0010                     	;# 
    58  0011                     	;# 
    59  0012                     	;# 
    60  0013                     	;# 
    61  0014                     	;# 
    62  0015                     	;# 
    63  0015                     	;# 
    64  0016                     	;# 
    65  0017                     	;# 
    66  0018                     	;# 
    67  0019                     	;# 
    68  001A                     	;# 
    69  001B                     	;# 
    70  001B                     	;# 
    71  001C                     	;# 
    72  001D                     	;# 
    73  001E                     	;# 
    74  001F                     	;# 
    75  0081                     	;# 
    76  0085                     	;# 
    77  0086                     	;# 
    78  0087                     	;# 
    79  0088                     	;# 
    80  0089                     	;# 
    81  008C                     	;# 
    82  008D                     	;# 
    83  008E                     	;# 
    84  0091                     	;# 
    85  0092                     	;# 
    86  0093                     	;# 
    87  0094                     	;# 
    88  0098                     	;# 
    89  0099                     	;# 
    90  009C                     	;# 
    91  009D                     	;# 
    92  009E                     	;# 
    93  009F                     	;# 
    94  010C                     	;# 
    95  010D                     	;# 
    96  010E                     	;# 
    97  010F                     	;# 
    98  018C                     	;# 
    99  018D                     	;# 
   100  0000                     	;# 
   101  0001                     	;# 
   102  0002                     	;# 
   103  0003                     	;# 
   104  0004                     	;# 
   105  0005                     	;# 
   106  0006                     	;# 
   107  0007                     	;# 
   108  0008                     	;# 
   109  0009                     	;# 
   110  000A                     	;# 
   111  000B                     	;# 
   112  000C                     	;# 
   113  000D                     	;# 
   114  000E                     	;# 
   115  000E                     	;# 
   116  000F                     	;# 
   117  0010                     	;# 
   118  0011                     	;# 
   119  0012                     	;# 
   120  0013                     	;# 
   121  0014                     	;# 
   122  0015                     	;# 
   123  0015                     	;# 
   124  0016                     	;# 
   125  0017                     	;# 
   126  0018                     	;# 
   127  0019                     	;# 
   128  001A                     	;# 
   129  001B                     	;# 
   130  001B                     	;# 
   131  001C                     	;# 
   132  001D                     	;# 
   133  001E                     	;# 
   134  001F                     	;# 
   135  0081                     	;# 
   136  0085                     	;# 
   137  0086                     	;# 
   138  0087                     	;# 
   139  0088                     	;# 
   140  0089                     	;# 
   141  008C                     	;# 
   142  008D                     	;# 
   143  008E                     	;# 
   144  0091                     	;# 
   145  0092                     	;# 
   146  0093                     	;# 
   147  0094                     	;# 
   148  0098                     	;# 
   149  0099                     	;# 
   150  009C                     	;# 
   151  009D                     	;# 
   152  009E                     	;# 
   153  009F                     	;# 
   154  010C                     	;# 
   155  010D                     	;# 
   156  010E                     	;# 
   157  010F                     	;# 
   158  018C                     	;# 
   159  018D                     	;# 
   160  0000                     	;# 
   161  0001                     	;# 
   162  0002                     	;# 
   163  0003                     	;# 
   164  0004                     	;# 
   165  0005                     	;# 
   166  0006                     	;# 
   167  0007                     	;# 
   168  0008                     	;# 
   169  0009                     	;# 
   170  000A                     	;# 
   171  000B                     	;# 
   172  000C                     	;# 
   173  000D                     	;# 
   174  000E                     	;# 
   175  000E                     	;# 
   176  000F                     	;# 
   177  0010                     	;# 
   178  0011                     	;# 
   179  0012                     	;# 
   180  0013                     	;# 
   181  0014                     	;# 
   182  0015                     	;# 
   183  0015                     	;# 
   184  0016                     	;# 
   185  0017                     	;# 
   186  0018                     	;# 
   187  0019                     	;# 
   188  001A                     	;# 
   189  001B                     	;# 
   190  001B                     	;# 
   191  001C                     	;# 
   192  001D                     	;# 
   193  001E                     	;# 
   194  001F                     	;# 
   195  0081                     	;# 
   196  0085                     	;# 
   197  0086                     	;# 
   198  0087                     	;# 
   199  0088                     	;# 
   200  0089                     	;# 
   201  008C                     	;# 
   202  008D                     	;# 
   203  008E                     	;# 
   204  0091                     	;# 
   205  0092                     	;# 
   206  0093                     	;# 
   207  0094                     	;# 
   208  0098                     	;# 
   209  0099                     	;# 
   210  009C                     	;# 
   211  009D                     	;# 
   212  009E                     	;# 
   213  009F                     	;# 
   214  010C                     	;# 
   215  010D                     	;# 
   216  010E                     	;# 
   217  010F                     	;# 
   218  018C                     	;# 
   219  018D                     	;# 
   220  0000                     	;# 
   221  0001                     	;# 
   222  0002                     	;# 
   223  0003                     	;# 
   224  0004                     	;# 
   225  0005                     	;# 
   226  0006                     	;# 
   227  0007                     	;# 
   228  0008                     	;# 
   229  0009                     	;# 
   230  000A                     	;# 
   231  000B                     	;# 
   232  000C                     	;# 
   233  000D                     	;# 
   234  000E                     	;# 
   235  000E                     	;# 
   236  000F                     	;# 
   237  0010                     	;# 
   238  0011                     	;# 
   239  0012                     	;# 
   240  0013                     	;# 
   241  0014                     	;# 
   242  0015                     	;# 
   243  0015                     	;# 
   244  0016                     	;# 
   245  0017                     	;# 
   246  0018                     	;# 
   247  0019                     	;# 
   248  001A                     	;# 
   249  001B                     	;# 
   250  001B                     	;# 
   251  001C                     	;# 
   252  001D                     	;# 
   253  001E                     	;# 
   254  001F                     	;# 
   255  0081                     	;# 
   256  0085                     	;# 
   257  0086                     	;# 
   258  0087                     	;# 
   259  0088                     	;# 
   260  0089                     	;# 
   261  008C                     	;# 
   262  008D                     	;# 
   263  008E                     	;# 
   264  0091                     	;# 
   265  0092                     	;# 
   266  0093                     	;# 
   267  0094                     	;# 
   268  0098                     	;# 
   269  0099                     	;# 
   270  009C                     	;# 
   271  009D                     	;# 
   272  009E                     	;# 
   273  009F                     	;# 
   274  010C                     	;# 
   275  010D                     	;# 
   276  010E                     	;# 
   277  010F                     	;# 
   278  018C                     	;# 
   279  018D                     	;# 
   280  0000                     	;# 
   281  0001                     	;# 
   282  0002                     	;# 
   283  0003                     	;# 
   284  0004                     	;# 
   285  0005                     	;# 
   286  0006                     	;# 
   287  0007                     	;# 
   288  0008                     	;# 
   289  0009                     	;# 
   290  000A                     	;# 
   291  000B                     	;# 
   292  000C                     	;# 
   293  000D                     	;# 
   294  000E                     	;# 
   295  000E                     	;# 
   296  000F                     	;# 
   297  0010                     	;# 
   298  0011                     	;# 
   299  0012                     	;# 
   300  0013                     	;# 
   301  0014                     	;# 
   302  0015                     	;# 
   303  0015                     	;# 
   304  0016                     	;# 
   305  0017                     	;# 
   306  0018                     	;# 
   307  0019                     	;# 
   308  001A                     	;# 
   309  001B                     	;# 
   310  001B                     	;# 
   311  001C                     	;# 
   312  001D                     	;# 
   313  001E                     	;# 
   314  001F                     	;# 
   315  0081                     	;# 
   316  0085                     	;# 
   317  0086                     	;# 
   318  0087                     	;# 
   319  0088                     	;# 
   320  0089                     	;# 
   321  008C                     	;# 
   322  008D                     	;# 
   323  008E                     	;# 
   324  0091                     	;# 
   325  0092                     	;# 
   326  0093                     	;# 
   327  0094                     	;# 
   328  0098                     	;# 
   329  0099                     	;# 
   330  009C                     	;# 
   331  009D                     	;# 
   332  009E                     	;# 
   333  009F                     	;# 
   334  010C                     	;# 
   335  010D                     	;# 
   336  010E                     	;# 
   337  010F                     	;# 
   338  018C                     	;# 
   339  018D                     	;# 
   340  0000                     	;# 
   341  0001                     	;# 
   342  0002                     	;# 
   343  0003                     	;# 
   344  0004                     	;# 
   345  0005                     	;# 
   346  0006                     	;# 
   347  0007                     	;# 
   348  0008                     	;# 
   349  0009                     	;# 
   350  000A                     	;# 
   351  000B                     	;# 
   352  000C                     	;# 
   353  000D                     	;# 
   354  000E                     	;# 
   355  000E                     	;# 
   356  000F                     	;# 
   357  0010                     	;# 
   358  0011                     	;# 
   359  0012                     	;# 
   360  0013                     	;# 
   361  0014                     	;# 
   362  0015                     	;# 
   363  0015                     	;# 
   364  0016                     	;# 
   365  0017                     	;# 
   366  0018                     	;# 
   367  0019                     	;# 
   368  001A                     	;# 
   369  001B                     	;# 
   370  001B                     	;# 
   371  001C                     	;# 
   372  001D                     	;# 
   373  001E                     	;# 
   374  001F                     	;# 
   375  0081                     	;# 
   376  0085                     	;# 
   377  0086                     	;# 
   378  0087                     	;# 
   379  0088                     	;# 
   380  0089                     	;# 
   381  008C                     	;# 
   382  008D                     	;# 
   383  008E                     	;# 
   384  0091                     	;# 
   385  0092                     	;# 
   386  0093                     	;# 
   387  0094                     	;# 
   388  0098                     	;# 
   389  0099                     	;# 
   390  009C                     	;# 
   391  009D                     	;# 
   392  009E                     	;# 
   393  009F                     	;# 
   394  010C                     	;# 
   395  010D                     	;# 
   396  010E                     	;# 
   397  010F                     	;# 
   398  018C                     	;# 
   399  018D                     	;# 
   400                           
   401                           	psect	idataBANK0
   402  07FE                     __pidataBANK0:	
   403                           
   404                           ;initializer for _adcClosest
   405  07FE  34E8               	retlw	232
   406  07FF  3403               	retlw	3
   407  001F                     _ADCON0	set	31
   408  0005                     _PORTA	set	5
   409  0007                     _PORTC	set	7
   410  0008                     _PORTD	set	8
   411  0009                     _PORTE	set	9
   412  001A                     _RCREG	set	26
   413  0018                     _RCSTA	set	24
   414  0013                     _SSPBUF	set	19
   415  0014                     _SSPCON	set	20
   416  0001                     _TMR0	set	1
   417  0019                     _TXREG	set	25
   418  001E                     _ADRESH	set	30
   419  005F                     _GIE	set	95
   420  00FA                     _GO	set	250
   421  005E                     _PEIE	set	94
   422  0030                     _RB0	set	48
   423  0031                     _RB1	set	49
   424  0032                     _RB2	set	50
   425  0034                     _RB4	set	52
   426  003A                     _RC2	set	58
   427  0065                     _RCIF	set	101
   428  0048                     _RE0	set	72
   429  0049                     _RE1	set	73
   430  004A                     _RE2	set	74
   431  0063                     _SSPIF	set	99
   432  005D                     _TMR0IE	set	93
   433  005A                     _TMR0IF	set	90
   434  009F                     _ADCON1	set	159
   435  009E                     _ADRESL	set	158
   436  0081                     _OPTION_REG	set	129
   437  0099                     _SPBRG	set	153
   438  0094                     _SSPSTAT	set	148
   439  0085                     _TRISA	set	133
   440  0086                     _TRISB	set	134
   441  0087                     _TRISC	set	135
   442  0088                     _TRISD	set	136
   443  0089                     _TRISE	set	137
   444  0098                     _TXSTA	set	152
   445  04C1                     _TRMT	set	1217
   446                           
   447                           ; #config settings
   448  0000                     
   449                           	psect	cinit
   450  0015                     start_initialization:	
   451  0015                     __initialization:	
   452                           
   453                           ; Initialize objects allocated to BANK0
   454  0015  120A  118A  27FE  120A  118A  	fcall	__pidataBANK0	;fetch initializer
   455  001A  00EA               	movwf	__pdataBANK0& (0+127)
   456  001B  120A  118A  27FF  120A  118A  	fcall	__pidataBANK0+1	;fetch initializer
   457  0020  00EB               	movwf	(__pdataBANK0+1)& (0+127)
   458                           
   459                           ; Clear objects allocated to BANK0
   460  0021  1383               	bcf	3,7	;select IRP bank0
   461  0022  3020               	movlw	low __pbssBANK0
   462  0023  0084               	movwf	4
   463  0024  3047               	movlw	low (__pbssBANK0+39)
   464  0025  120A  158A  263A   	fcall	clear_ram0
   465                           
   466                           ; Clear objects allocated to COMMON
   467  0028  01FB               	clrf	__pbssCOMMON& (0+127)
   468  0029  01FC               	clrf	(__pbssCOMMON+1)& (0+127)
   469                           
   470                           ; Clear objects allocated to BITCOMMON
   471  002A  01FD               	clrf	(__pbitbssCOMMON/(0+8))& (0+127)
   472  002B                     end_of_initialization:	
   473                           ;End of C runtime variable initialization code
   474                           
   475  002B                     __end_of__initialization:	
   476  002B  0183               	clrf	3
   477  002C  120A  118A  2B6D   	ljmp	_main	;jump to C main() function
   478                           
   479                           	psect	bitbssCOMMON
   480  03E8                     __pbitbssCOMMON:	
   481  03E8                     _FLAG_1000MS:	
   482  03E8                     	ds	1
   483                           
   484                           	psect	bssCOMMON
   485  007B                     __pbssCOMMON:	
   486  007B                     _currentStep:	
   487  007B                     	ds	1
   488  007C                     _rxbyte:	
   489  007C                     	ds	1
   490                           
   491                           	psect	bssBANK0
   492  0020                     __pbssBANK0:	
   493  0020                     _Distance:	
   494  0020                     	ds	2
   495  0022                     _adcRAW:	
   496  0022                     	ds	2
   497  0024                     _angleTurned:	
   498  0024                     	ds	2
   499  0026                     _degrees:	
   500  0026                     	ds	2
   501  0028                     _distTrav:	
   502  0028                     	ds	2
   503  002A                     _loop:	
   504  002A                     	ds	2
   505  002C                     _stepClosest:	
   506  002C                     	ds	2
   507  002E                     _stepCountNeg:	
   508  002E                     	ds	2
   509  0030                     _time_count:	
   510  0030                     	ds	2
   511  0032                     _totalDistTrav:	
   512  0032                     	ds	2
   513  0034                     _totalangleTurned:	
   514  0034                     	ds	2
   515  0036                     _LeftSpeedH:	
   516  0036                     	ds	1
   517  0037                     _LeftSpeedL:	
   518  0037                     	ds	1
   519  0038                     _PB6Counter:	
   520  0038                     	ds	1
   521  0039                     _PB7Counter:	
   522  0039                     	ds	1
   523  003A                     _PB8Counter:	
   524  003A                     	ds	1
   525  003B                     _RightSpeedH:	
   526  003B                     	ds	1
   527  003C                     _RightSpeedL:	
   528  003C                     	ds	1
   529  003D                     _controlByte:	
   530  003D                     	ds	1
   531  003E                     _count:	
   532  003E                     	ds	1
   533  003F                     _lowByte:	
   534  003F                     	ds	1
   535  0040                     _negativeFlag:	
   536  0040                     	ds	1
   537  0041                     _radH:	
   538  0041                     	ds	1
   539  0042                     _radL:	
   540  0042                     	ds	1
   541  0043                     _speedH:	
   542  0043                     	ds	1
   543  0044                     _speedL:	
   544  0044                     	ds	1
   545  0045                     _stepCount:	
   546  0045                     	ds	1
   547  0046                     _highByte:	
   548  0046                     	ds	1
   549                           
   550                           	psect	dataBANK0
   551  006A                     __pdataBANK0:	
   552  006A                     _adcClosest:	
   553  006A                     	ds	2
   554                           
   555                           	psect	clrtext
   556  0E3A                     clear_ram0:	
   557                           ;	Called with FSR containing the base address, and
   558                           ;	W with the last address+1
   559                           
   560  0E3A  0064               	clrwdt	;clear the watchdog before getting into this loop
   561  0E3B                     clrloop0:	
   562  0E3B  0180               	clrf	0	;clear RAM location pointed to by FSR
   563  0E3C  0A84               	incf	4,f	;increment pointer
   564  0E3D  0604               	xorwf	4,w	;XOR with final address
   565  0E3E  1903               	btfsc	3,2	;have we reached the end yet?
   566  0E3F  3400               	retlw	0	;all done for this memory range, return
   567  0E40  0604               	xorwf	4,w	;XOR again to restore value
   568  0E41  2E3B               	goto	clrloop0	;do the next byte
   569                           
   570                           	psect	cstackCOMMON
   571  0070                     __pcstackCOMMON:	
   572  0070                     ?_setupSPI:	
   573  0070                     ?_ser_init:	
   574                           ; 1 bytes @ 0x0
   575                           
   576  0070                     ?_setupLCD:	
   577                           ; 1 bytes @ 0x0
   578                           
   579  0070                     ?_setupADC:	
   580                           ; 1 bytes @ 0x0
   581                           
   582  0070                     ?_spi_transfer:	
   583                           ; 1 bytes @ 0x0
   584                           
   585  0070                     ?_ser_putch:	
   586                           ; 1 bytes @ 0x0
   587                           
   588  0070                     ?_moveCW:	
   589                           ; 1 bytes @ 0x0
   590                           
   591  0070                     ?_ADCMain:	
   592                           ; 1 bytes @ 0x0
   593                           
   594  0070                     ?_moveCCW:	
   595                           ; 1 bytes @ 0x0
   596                           
   597  0070                     ?_lcdSetCursor:	
   598                           ; 1 bytes @ 0x0
   599                           
   600  0070                     ?_isr:	
   601                           ; 1 bytes @ 0x0
   602                           
   603  0070                     ?_main:	
   604                           ; 1 bytes @ 0x0
   605                           
   606  0070                     ?_lcdWriteControl:	
   607                           ; 1 bytes @ 0x0
   608                           
   609  0070                     ?_lcdWriteData:	
   610                           ; 1 bytes @ 0x0
   611                           
   612  0070                     ?_ser_getch:	
   613                           ; 1 bytes @ 0x0
   614                           
   615  0070                     ?_getADC:	
   616                           ; 1 bytes @ 0x0
   617                           
   618  0070                     ?___lwmod:	
   619                           ; 2 bytes @ 0x0
   620                           
   621  0070                     ___lwmod@divisor:	
   622                           ; 2 bytes @ 0x0
   623                           
   624                           
   625                           ; 2 bytes @ 0x0
   626  0070                     	ds	2
   627  0072                     ___lwmod@dividend:	
   628                           
   629                           ; 2 bytes @ 0x2
   630  0072                     	ds	2
   631  0074                     ??___lwmod:	
   632                           
   633                           ; 1 bytes @ 0x4
   634  0074                     	ds	1
   635  0075                     ___lwmod@counter:	
   636                           
   637                           ; 1 bytes @ 0x5
   638  0075                     	ds	1
   639  0076                     ??_isr:	
   640                           
   641                           ; 1 bytes @ 0x6
   642  0076                     	ds	5
   643                           
   644                           	psect	cstackBANK0
   645  0047                     __pcstackBANK0:	
   646  0047                     ??_setupSPI:	
   647  0047                     ??_ser_init:	
   648                           ; 1 bytes @ 0x0
   649                           
   650  0047                     ??_setupADC:	
   651                           ; 1 bytes @ 0x0
   652                           
   653  0047                     ??_spi_transfer:	
   654                           ; 1 bytes @ 0x0
   655                           
   656  0047                     ??_ser_putch:	
   657                           ; 1 bytes @ 0x0
   658                           
   659  0047                     ??_moveCW:	
   660                           ; 1 bytes @ 0x0
   661                           
   662  0047                     ??_moveCCW:	
   663                           ; 1 bytes @ 0x0
   664                           
   665  0047                     ??_getADC:	
   666                           ; 1 bytes @ 0x0
   667                           
   668  0047                     ??_lcdWriteControl:	
   669                           ; 1 bytes @ 0x0
   670                           
   671  0047                     ??_lcdWriteData:	
   672                           ; 1 bytes @ 0x0
   673                           
   674  0047                     ??_ser_getch:	
   675                           ; 1 bytes @ 0x0
   676                           
   677  0047                     ?___wmul:	
   678                           ; 1 bytes @ 0x0
   679                           
   680  0047                     ser_putch@c:	
   681                           ; 2 bytes @ 0x0
   682                           
   683  0047                     ___wmul@multiplier:	
   684                           ; 1 bytes @ 0x0
   685                           
   686                           
   687                           ; 2 bytes @ 0x0
   688  0047                     	ds	1
   689  0048                     ?_DriveDirect:	
   690  0048                     ?_Drive:	
   691                           ; 1 bytes @ 0x1
   692                           
   693  0048                     spi_transfer@temp:	
   694                           ; 1 bytes @ 0x1
   695                           
   696  0048                     ser_getch@rxbyte:	
   697                           ; 1 bytes @ 0x1
   698                           
   699  0048                     Drive@speedL:	
   700                           ; 1 bytes @ 0x1
   701                           
   702  0048                     DriveDirect@RightSpeedL:	
   703                           ; 1 bytes @ 0x1
   704                           
   705                           
   706                           ; 1 bytes @ 0x1
   707  0048                     	ds	1
   708  0049                     ?_getSensorData:	
   709  0049                     lcdWriteControl@databyte:	
   710                           ; 2 bytes @ 0x2
   711                           
   712  0049                     lcdWriteData@databyte:	
   713                           ; 1 bytes @ 0x2
   714                           
   715  0049                     spi_transfer@data:	
   716                           ; 1 bytes @ 0x2
   717                           
   718  0049                     Drive@radH:	
   719                           ; 1 bytes @ 0x2
   720                           
   721  0049                     DriveDirect@LeftSpeedH:	
   722                           ; 1 bytes @ 0x2
   723                           
   724  0049                     getSensorData@bytes:	
   725                           ; 1 bytes @ 0x2
   726                           
   727  0049                     ___wmul@multiplicand:	
   728                           ; 1 bytes @ 0x2
   729                           
   730                           
   731                           ; 2 bytes @ 0x2
   732  0049                     	ds	1
   733  004A                     ??_setupLCD:	
   734  004A                     ?_lcdWriteToDigitBCD:	
   735                           ; 1 bytes @ 0x3
   736                           
   737  004A                     ??_lcdSetCursor:	
   738                           ; 1 bytes @ 0x3
   739                           
   740  004A                     lcdSetCursor@address:	
   741                           ; 1 bytes @ 0x3
   742                           
   743  004A                     Drive@radL:	
   744                           ; 1 bytes @ 0x3
   745                           
   746  004A                     DriveDirect@LeftSpeedL:	
   747                           ; 1 bytes @ 0x3
   748                           
   749  004A                     lcdWriteToDigitBCD@data:	
   750                           ; 1 bytes @ 0x3
   751                           
   752                           
   753                           ; 2 bytes @ 0x3
   754  004A                     	ds	1
   755  004B                     ??_getSensorData:	
   756  004B                     ??_DriveDirect:	
   757                           ; 1 bytes @ 0x4
   758                           
   759  004B                     ??_Drive:	
   760                           ; 1 bytes @ 0x4
   761                           
   762  004B                     ??___wmul:	
   763                           ; 1 bytes @ 0x4
   764                           
   765  004B                     Drive@speedH:	
   766                           ; 1 bytes @ 0x4
   767                           
   768  004B                     DriveDirect@RightSpeedH:	
   769                           ; 1 bytes @ 0x4
   770                           
   771  004B                     ___wmul@product:	
   772                           ; 1 bytes @ 0x4
   773                           
   774                           
   775                           ; 2 bytes @ 0x4
   776  004B                     	ds	1
   777  004C                     ??_lcdWriteToDigitBCD:	
   778  004C                     lcdWriteToDigitBCD@TensDigit:	
   779                           ; 1 bytes @ 0x5
   780                           
   781                           
   782                           ; 2 bytes @ 0x5
   783  004C                     	ds	1
   784  004D                     ?___lwdiv:	
   785  004D                     ?___aldiv:	
   786                           ; 2 bytes @ 0x6
   787                           
   788  004D                     getSensorData@sensor:	
   789                           ; 4 bytes @ 0x6
   790                           
   791  004D                     ___lwdiv@divisor:	
   792                           ; 2 bytes @ 0x6
   793                           
   794  004D                     ___aldiv@divisor:	
   795                           ; 2 bytes @ 0x6
   796                           
   797                           
   798                           ; 4 bytes @ 0x6
   799  004D                     	ds	1
   800  004E                     lcdWriteToDigitBCD@HunsDigit:	
   801                           
   802                           ; 2 bytes @ 0x7
   803  004E                     	ds	1
   804  004F                     getSensorData@packetID:	
   805  004F                     ___lwdiv@dividend:	
   806                           ; 1 bytes @ 0x8
   807                           
   808                           
   809                           ; 2 bytes @ 0x8
   810  004F                     	ds	1
   811  0050                     lcdWriteToDigitBCD@ThouDigit:	
   812                           
   813                           ; 2 bytes @ 0x9
   814  0050                     	ds	1
   815  0051                     ??___lwdiv:	
   816  0051                     ___aldiv@dividend:	
   817                           ; 1 bytes @ 0xA
   818                           
   819                           
   820                           ; 4 bytes @ 0xA
   821  0051                     	ds	1
   822  0052                     lcdWriteToDigitBCD@TenThouDigit:	
   823  0052                     ___lwdiv@quotient:	
   824                           ; 2 bytes @ 0xB
   825                           
   826                           
   827                           ; 2 bytes @ 0xB
   828  0052                     	ds	2
   829  0054                     ___lwdiv@counter:	
   830  0054                     lcdWriteToDigitBCD@OnesDigit:	
   831                           ; 1 bytes @ 0xD
   832                           
   833                           
   834                           ; 2 bytes @ 0xD
   835  0054                     	ds	1
   836  0055                     ??___aldiv:	
   837                           
   838                           ; 1 bytes @ 0xE
   839  0055                     	ds	1
   840  0056                     ___aldiv@counter:	
   841                           
   842                           ; 1 bytes @ 0xF
   843  0056                     	ds	1
   844  0057                     ___aldiv@sign:	
   845                           
   846                           ; 1 bytes @ 0x10
   847  0057                     	ds	1
   848  0058                     ___aldiv@quotient:	
   849                           
   850                           ; 4 bytes @ 0x11
   851  0058                     	ds	4
   852  005C                     ?_adcConvertMM:	
   853  005C                     adcConvertMM@adcRAW:	
   854                           ; 2 bytes @ 0x15
   855                           
   856                           
   857                           ; 2 bytes @ 0x15
   858  005C                     	ds	2
   859  005E                     ??_adcConvertMM:	
   860                           
   861                           ; 1 bytes @ 0x17
   862  005E                     	ds	8
   863  0066                     ??_ADCMain:	
   864  0066                     ??_main:	
   865                           ; 1 bytes @ 0x1F
   866                           
   867                           
   868                           ; 1 bytes @ 0x1F
   869  0066                     	ds	3
   870  0069                     main@controlByte:	
   871                           
   872                           ; 1 bytes @ 0x22
   873  0069                     	ds	1
   874                           
   875                           	psect	maintext
   876  036D                     __pmaintext:	
   877 ;;
   878 ;;Main: autosize = 0, tempsize = 3, incstack = 0, save=0
   879 ;;
   880 ;; *************** function _main *****************
   881 ;; Defined at:
   882 ;;		line 69 in file "main.c"
   883 ;; Parameters:    Size  Location     Type
   884 ;;		None
   885 ;; Auto vars:     Size  Location     Type
   886 ;;  controlByte     1   34[BANK0 ] unsigned char 
   887 ;; Return value:  Size  Location     Type
   888 ;;                  1    wreg      void 
   889 ;; Registers used:
   890 ;;		wreg, fsr0l, fsr0h, status,2, status,0, btemp+1, pclath, cstack
   891 ;; Tracked objects:
   892 ;;		On entry : B00/0
   893 ;;		On exit  : 0/0
   894 ;;		Unchanged: 0/0
   895 ;; Data sizes:     COMMON   BANK0   BANK1   BANK3   BANK2
   896 ;;      Params:         0       0       0       0       0
   897 ;;      Locals:         0       1       0       0       0
   898 ;;      Temps:          0       3       0       0       0
   899 ;;      Totals:         0       4       0       0       0
   900 ;;Total ram usage:        4 bytes
   901 ;; Hardware stack levels required when called:    5
   902 ;; This function calls:
   903 ;;		_ADCMain
   904 ;;		_Drive
   905 ;;		_DriveDirect
   906 ;;		_getSensorData
   907 ;;		_lcdSetCursor
   908 ;;		_lcdWriteToDigitBCD
   909 ;;		_moveCCW
   910 ;;		_moveCW
   911 ;;		_ser_init
   912 ;;		_ser_putch
   913 ;;		_setupADC
   914 ;;		_setupLCD
   915 ;;		_setupSPI
   916 ;;		_spi_transfer
   917 ;; This function is called by:
   918 ;;		Startup code after reset
   919 ;; This function uses a non-reentrant model
   920 ;;
   921                           
   922                           
   923                           ;psect for function _main
   924  036D                     _main:	
   925                           
   926                           ;main.c: 70: _delay((unsigned long)((5000)*(20000000/4000.0)));
   927                           
   928                           ;incstack = 0
   929                           ; Regs used in _main: [wreg-fsr0h+status,2+status,0+btemp+1+pclath+cstack]
   930  036D  307F               	movlw	127
   931  036E  1283               	bcf	3,5	;RP0=0, select bank0
   932  036F  1303               	bcf	3,6	;RP1=0, select bank0
   933  0370  00E8               	movwf	??_main+2
   934  0371  30D4               	movlw	212
   935  0372  00E7               	movwf	??_main+1
   936  0373  30AE               	movlw	174
   937  0374  00E6               	movwf	??_main
   938  0375                     u1737:	
   939  0375  0BE6               	decfsz	??_main,f
   940  0376  2B75               	goto	u1737
   941  0377  0BE7               	decfsz	??_main+1,f
   942  0378  2B75               	goto	u1737
   943  0379  0BE8               	decfsz	??_main+2,f
   944  037A  2B75               	goto	u1737
   945  037B  2B7C               	nop2
   946                           
   947                           ;main.c: 73: setupSPI();
   948  037C  120A  158A  26BC  120A  118A  	fcall	_setupSPI
   949                           
   950                           ;main.c: 74: ser_init();
   951  0381  120A  158A  2661  120A  118A  	fcall	_ser_init
   952                           
   953                           ;main.c: 75: setupLCD();
   954  0386  120A  158A  2767  120A  118A  	fcall	_setupLCD
   955                           
   956                           ;main.c: 76: setupADC();
   957  038B  120A  158A  26A6  120A  118A  	fcall	_setupADC
   958                           
   959                           ;main.c: 78: unsigned char controlByte = 0b00001101;
   960  0390  300D               	movlw	13
   961  0391  1283               	bcf	3,5	;RP0=0, select bank0
   962  0392  1303               	bcf	3,6	;RP1=0, select bank0
   963  0393  00E6               	movwf	??_main
   964  0394  0866               	movf	??_main,w
   965  0395  00E9               	movwf	main@controlByte
   966                           
   967                           ;main.c: 79: spi_transfer(controlByte);
   968  0396  0869               	movf	main@controlByte,w
   969  0397  120A  158A  2670  120A  118A  	fcall	_spi_transfer
   970                           
   971                           ;main.c: 81: _delay((unsigned long)((1000)*(20000000/4000.0)));
   972  039C  301A               	movlw	26
   973  039D  1283               	bcf	3,5	;RP0=0, select bank0
   974  039E  1303               	bcf	3,6	;RP1=0, select bank0
   975  039F  00E8               	movwf	??_main+2
   976  03A0  305E               	movlw	94
   977  03A1  00E7               	movwf	??_main+1
   978  03A2  3086               	movlw	134
   979  03A3  00E6               	movwf	??_main
   980  03A4                     u1747:	
   981  03A4  0BE6               	decfsz	??_main,f
   982  03A5  2BA4               	goto	u1747
   983  03A6  0BE7               	decfsz	??_main+1,f
   984  03A7  2BA4               	goto	u1747
   985  03A8  0BE8               	decfsz	??_main+2,f
   986  03A9  2BA4               	goto	u1747
   987  03AA  0000               	nop
   988                           
   989                           ;main.c: 82: ser_putch(128);
   990  03AB  3080               	movlw	128
   991  03AC  120A  158A  2655  120A  118A  	fcall	_ser_putch
   992                           
   993                           ;main.c: 83: _delay((unsigned long)((1000)*(20000000/4000.0)));
   994  03B1  301A               	movlw	26
   995  03B2  1283               	bcf	3,5	;RP0=0, select bank0
   996  03B3  1303               	bcf	3,6	;RP1=0, select bank0
   997  03B4  00E8               	movwf	??_main+2
   998  03B5  305E               	movlw	94
   999  03B6  00E7               	movwf	??_main+1
  1000  03B7  3086               	movlw	134
  1001  03B8  00E6               	movwf	??_main
  1002  03B9                     u1757:	
  1003  03B9  0BE6               	decfsz	??_main,f
  1004  03BA  2BB9               	goto	u1757
  1005  03BB  0BE7               	decfsz	??_main+1,f
  1006  03BC  2BB9               	goto	u1757
  1007  03BD  0BE8               	decfsz	??_main+2,f
  1008  03BE  2BB9               	goto	u1757
  1009  03BF  0000               	nop
  1010                           
  1011                           ;main.c: 84: ser_putch(132);
  1012  03C0  3084               	movlw	132
  1013  03C1  120A  158A  2655  120A  118A  	fcall	_ser_putch
  1014                           
  1015                           ;main.c: 85: _delay((unsigned long)((1000)*(20000000/4000.0)));
  1016  03C6  301A               	movlw	26
  1017  03C7  1283               	bcf	3,5	;RP0=0, select bank0
  1018  03C8  1303               	bcf	3,6	;RP1=0, select bank0
  1019  03C9  00E8               	movwf	??_main+2
  1020  03CA  305E               	movlw	94
  1021  03CB  00E7               	movwf	??_main+1
  1022  03CC  3086               	movlw	134
  1023  03CD  00E6               	movwf	??_main
  1024  03CE                     u1767:	
  1025  03CE  0BE6               	decfsz	??_main,f
  1026  03CF  2BCE               	goto	u1767
  1027  03D0  0BE7               	decfsz	??_main+1,f
  1028  03D1  2BCE               	goto	u1767
  1029  03D2  0BE8               	decfsz	??_main+2,f
  1030  03D3  2BCE               	goto	u1767
  1031  03D4  0000               	nop
  1032                           
  1033                           ;main.c: 86: lcdWriteToDigitBCD(totalDistTrav);
  1034  03D5  1283               	bcf	3,5	;RP0=0, select bank0
  1035  03D6  1303               	bcf	3,6	;RP1=0, select bank0
  1036  03D7  0833               	movf	_totalDistTrav+1,w
  1037  03D8  00CB               	movwf	lcdWriteToDigitBCD@data+1
  1038  03D9  0832               	movf	_totalDistTrav,w
  1039  03DA  00CA               	movwf	lcdWriteToDigitBCD@data
  1040  03DB  120A  118A  257C  120A  118A  	fcall	_lcdWriteToDigitBCD
  1041  03E0                     l2039:	
  1042                           ;main.c: 89: while(1){
  1043                           
  1044                           
  1045                           ;main.c: 94: if (PB8Counter >= 10 && !RB0 == 0){
  1046  03E0  300A               	movlw	10
  1047  03E1  1283               	bcf	3,5	;RP0=0, select bank0
  1048  03E2  1303               	bcf	3,6	;RP1=0, select bank0
  1049  03E3  023A               	subwf	_PB8Counter,w
  1050  03E4  1803               	btfsc	3,0
  1051  03E5  1C06               	btfss	6,0	;volatile
  1052  03E6  2C42               	goto	l2071
  1053                           
  1054                           ;main.c: 95: adcClosest = 0;
  1055  03E7  01EA               	clrf	_adcClosest
  1056  03E8  01EB               	clrf	_adcClosest+1
  1057                           
  1058                           ;main.c: 96: for (loop = 0; loop < 400; loop++){
  1059  03E9  01AA               	clrf	_loop
  1060  03EA  01AB               	clrf	_loop+1
  1061  03EB  082B               	movf	_loop+1,w
  1062  03EC  3A80               	xorlw	128
  1063  03ED  00FF               	movwf	127
  1064  03EE  3081               	movlw	129
  1065  03EF  027F               	subwf	127,w
  1066  03F0  1D03               	skipz
  1067  03F1  2BF4               	goto	u1615
  1068  03F2  3090               	movlw	144
  1069  03F3  022A               	subwf	_loop,w
  1070  03F4                     u1615:	
  1071  03F4  1803               	btfsc	3,0
  1072  03F5  2C24               	goto	l2061
  1073  03F6                     l2049:	
  1074                           
  1075                           ;main.c: 97: moveCW();
  1076  03F6  120A  118A  26A2  120A  118A  	fcall	_moveCW
  1077                           
  1078                           ;main.c: 98: ADCMain();
  1079  03FB  120A  158A  26D4  120A  118A  	fcall	_ADCMain
  1080                           
  1081                           ;main.c: 99: if (adcRAW > adcClosest){
  1082  0400  1283               	bcf	3,5	;RP0=0, select bank0
  1083  0401  1303               	bcf	3,6	;RP1=0, select bank0
  1084  0402  0823               	movf	_adcRAW+1,w	;volatile
  1085  0403  026B               	subwf	_adcClosest+1,w
  1086  0404  1D03               	skipz
  1087  0405  2C08               	goto	u1625
  1088  0406  0822               	movf	_adcRAW,w	;volatile
  1089  0407  026A               	subwf	_adcClosest,w
  1090  0408                     u1625:	
  1091  0408  1803               	skipnc
  1092  0409  2C13               	goto	l2057
  1093                           
  1094                           ;main.c: 100: adcClosest = adcRAW;
  1095  040A  0823               	movf	_adcRAW+1,w	;volatile
  1096  040B  00EB               	movwf	_adcClosest+1
  1097  040C  0822               	movf	_adcRAW,w	;volatile
  1098  040D  00EA               	movwf	_adcClosest
  1099                           
  1100                           ;main.c: 101: stepClosest = stepCount;
  1101  040E  0845               	movf	_stepCount,w
  1102  040F  00AC               	movwf	_stepClosest
  1103  0410  01AD               	clrf	_stepClosest+1
  1104  0411  1BAC               	btfsc	_stepClosest,7
  1105  0412  03AD               	decf	_stepClosest+1,f
  1106  0413                     l2057:	
  1107  0413  3001               	movlw	1
  1108  0414  07AA               	addwf	_loop,f
  1109  0415  1803               	skipnc
  1110  0416  0AAB               	incf	_loop+1,f
  1111  0417  3000               	movlw	0
  1112  0418  07AB               	addwf	_loop+1,f
  1113  0419  082B               	movf	_loop+1,w
  1114  041A  3A80               	xorlw	128
  1115  041B  00FF               	movwf	127
  1116  041C  3081               	movlw	129
  1117  041D  027F               	subwf	127,w
  1118  041E  1D03               	skipz
  1119  041F  2C22               	goto	u1635
  1120  0420  3090               	movlw	144
  1121  0421  022A               	subwf	_loop,w
  1122  0422                     u1635:	
  1123  0422  1C03               	skipc
  1124  0423  2BF6               	goto	l2049
  1125  0424                     l2061:	
  1126                           
  1127                           ;main.c: 102: }
  1128                           ;main.c: 103: }
  1129                           ;main.c: 105: for (loop = stepCount; loop != stepClosest; loop++){
  1130  0424  1283               	bcf	3,5	;RP0=0, select bank0
  1131  0425  1303               	bcf	3,6	;RP1=0, select bank0
  1132  0426  0845               	movf	_stepCount,w
  1133  0427  00AA               	movwf	_loop
  1134  0428  01AB               	clrf	_loop+1
  1135  0429  1BAA               	btfsc	_loop,7
  1136  042A  03AB               	decf	_loop+1,f
  1137  042B                     l2067:	
  1138  042B  082D               	movf	_stepClosest+1,w
  1139  042C  062B               	xorwf	_loop+1,w
  1140  042D  1D03               	skipz
  1141  042E  2C31               	goto	u1645
  1142  042F  082C               	movf	_stepClosest,w
  1143  0430  062A               	xorwf	_loop,w
  1144  0431                     u1645:	
  1145  0431  1903               	btfsc	3,2
  1146  0432  2C41               	goto	l2069
  1147                           
  1148                           ;main.c: 106: moveCCW();
  1149  0433  120A  118A  26ED  120A  118A  	fcall	_moveCCW
  1150  0438  3001               	movlw	1
  1151  0439  1283               	bcf	3,5	;RP0=0, select bank0
  1152  043A  1303               	bcf	3,6	;RP1=0, select bank0
  1153  043B  07AA               	addwf	_loop,f
  1154  043C  1803               	skipnc
  1155  043D  0AAB               	incf	_loop+1,f
  1156  043E  3000               	movlw	0
  1157  043F  07AB               	addwf	_loop+1,f
  1158  0440  2C2B               	goto	l2067
  1159  0441                     l2069:	
  1160                           
  1161                           ;main.c: 107: }
  1162                           ;main.c: 108: PB8Counter = 0;
  1163  0441  01BA               	clrf	_PB8Counter
  1164  0442                     l2071:	
  1165                           
  1166                           ;main.c: 109: }
  1167                           ;main.c: 114: if (getSensorData(18,1) == 0b00000001){
  1168  0442  01C9               	clrf	getSensorData@bytes
  1169  0443  0AC9               	incf	getSensorData@bytes,f
  1170  0444  3012               	movlw	18
  1171  0445  120A  118A  27C0  120A  118A  	fcall	_getSensorData
  1172  044A  1283               	bcf	3,5	;RP0=0, select bank0
  1173  044B  1303               	bcf	3,6	;RP1=0, select bank0
  1174  044C  0349               	decf	?_getSensorData,w
  1175  044D  044A               	iorwf	?_getSensorData+1,w
  1176  044E  1D03               	btfss	3,2
  1177  044F  2CA3               	goto	l2087
  1178                           
  1179                           ;main.c: 115: DriveDirect(0,250,0,250);
  1180  0450  30FA               	movlw	250
  1181  0451  00E6               	movwf	??_main
  1182  0452  0866               	movf	??_main,w
  1183  0453  00C8               	movwf	DriveDirect@RightSpeedL
  1184  0454  01C9               	clrf	DriveDirect@LeftSpeedH
  1185  0455  30FA               	movlw	250
  1186  0456  00E7               	movwf	??_main+1
  1187  0457  0867               	movf	??_main+1,w
  1188  0458  00CA               	movwf	DriveDirect@LeftSpeedL
  1189  0459  3000               	movlw	0
  1190  045A  120A  158A  273F  120A  118A  	fcall	_DriveDirect
  1191  045F                     l2083:	
  1192                           ;main.c: 116: while (totalDistTrav < 4000){
  1193                           
  1194  045F  1283               	bcf	3,5	;RP0=0, select bank0
  1195  0460  1303               	bcf	3,6	;RP1=0, select bank0
  1196  0461  0833               	movf	_totalDistTrav+1,w
  1197  0462  3A80               	xorlw	128
  1198  0463  00FF               	movwf	127
  1199  0464  308F               	movlw	143
  1200  0465  027F               	subwf	127,w
  1201  0466  1D03               	skipz
  1202  0467  2C6A               	goto	u1665
  1203  0468  30A0               	movlw	160
  1204  0469  0232               	subwf	_totalDistTrav,w
  1205  046A                     u1665:	
  1206  046A  1803               	btfsc	3,0
  1207  046B  2C98               	goto	l2085
  1208                           
  1209                           ;main.c: 117: distTrav = getSensorData(19,2);
  1210  046C  3002               	movlw	2
  1211  046D  1283               	bcf	3,5	;RP0=0, select bank0
  1212  046E  1303               	bcf	3,6	;RP1=0, select bank0
  1213  046F  00E6               	movwf	??_main
  1214  0470  0866               	movf	??_main,w
  1215  0471  00C9               	movwf	getSensorData@bytes
  1216  0472  3013               	movlw	19
  1217  0473  120A  118A  27C0  120A  118A  	fcall	_getSensorData
  1218  0478  1283               	bcf	3,5	;RP0=0, select bank0
  1219  0479  1303               	bcf	3,6	;RP1=0, select bank0
  1220  047A  084A               	movf	?_getSensorData+1,w
  1221  047B  00A9               	movwf	_distTrav+1
  1222  047C  0849               	movf	?_getSensorData,w
  1223  047D  00A8               	movwf	_distTrav
  1224                           
  1225                           ;main.c: 118: totalDistTrav = (totalDistTrav + distTrav);
  1226  047E  0828               	movf	_distTrav,w
  1227  047F  0732               	addwf	_totalDistTrav,w
  1228  0480  00B2               	movwf	_totalDistTrav
  1229  0481  0829               	movf	_distTrav+1,w
  1230  0482  1803               	skipnc
  1231  0483  0A29               	incf	_distTrav+1,w
  1232  0484  0733               	addwf	_totalDistTrav+1,w
  1233  0485  00B3               	movwf	_totalDistTrav+1
  1234                           
  1235                           ;main.c: 119: lcdSetCursor(0x00);
  1236  0486  3000               	movlw	0
  1237  0487  120A  158A  2642  120A  118A  	fcall	_lcdSetCursor
  1238                           
  1239                           ;main.c: 120: lcdWriteToDigitBCD(totalDistTrav);
  1240  048C  1283               	bcf	3,5	;RP0=0, select bank0
  1241  048D  1303               	bcf	3,6	;RP1=0, select bank0
  1242  048E  0833               	movf	_totalDistTrav+1,w
  1243  048F  00CB               	movwf	lcdWriteToDigitBCD@data+1
  1244  0490  0832               	movf	_totalDistTrav,w
  1245  0491  00CA               	movwf	lcdWriteToDigitBCD@data
  1246  0492  120A  118A  257C  120A  118A  	fcall	_lcdWriteToDigitBCD
  1247  0497  2C5F               	goto	l2083
  1248  0498                     l2085:	
  1249                           
  1250                           ;main.c: 121: }
  1251                           ;main.c: 123: DriveDirect(0,0,0,0);
  1252  0498  1283               	bcf	3,5	;RP0=0, select bank0
  1253  0499  1303               	bcf	3,6	;RP1=0, select bank0
  1254  049A  01C8               	clrf	DriveDirect@RightSpeedL
  1255  049B  01C9               	clrf	DriveDirect@LeftSpeedH
  1256  049C  01CA               	clrf	DriveDirect@LeftSpeedL
  1257  049D  3000               	movlw	0
  1258  049E  120A  158A  273F  120A  118A  	fcall	_DriveDirect
  1259  04A3                     l2087:	
  1260                           
  1261                           ;main.c: 125: }
  1262                           ;main.c: 128: if (getSensorData(18,1) == 0b00000100){
  1263  04A3  1283               	bcf	3,5	;RP0=0, select bank0
  1264  04A4  1303               	bcf	3,6	;RP1=0, select bank0
  1265  04A5  01C9               	clrf	getSensorData@bytes
  1266  04A6  0AC9               	incf	getSensorData@bytes,f
  1267  04A7  3012               	movlw	18
  1268  04A8  120A  118A  27C0  120A  118A  	fcall	_getSensorData
  1269  04AD  3004               	movlw	4
  1270  04AE  1283               	bcf	3,5	;RP0=0, select bank0
  1271  04AF  1303               	bcf	3,6	;RP1=0, select bank0
  1272  04B0  0649               	xorwf	?_getSensorData,w
  1273  04B1  044A               	iorwf	?_getSensorData+1,w
  1274  04B2  1D03               	btfss	3,2
  1275  04B3  2D71               	goto	l2127
  1276                           
  1277                           ;main.c: 130: totalDistTrav = 0;
  1278  04B4  01B2               	clrf	_totalDistTrav
  1279  04B5  01B3               	clrf	_totalDistTrav+1
  1280                           
  1281                           ;main.c: 132: for (loop = 0; loop < 4; loop++){
  1282  04B6  01AA               	clrf	_loop
  1283  04B7  01AB               	clrf	_loop+1
  1284  04B8  2D5B               	goto	L1
  1285  04B9                     l2101:	
  1286  04B9  1283               	bcf	3,5	;RP0=0, select bank0
  1287  04BA  1303               	bcf	3,6	;RP1=0, select bank0
  1288  04BB  0835               	movf	_totalangleTurned+1,w
  1289  04BC  3A80               	xorlw	128
  1290  04BD  00FF               	movwf	127
  1291  04BE  307F               	movlw	127
  1292  04BF  027F               	subwf	127,w
  1293  04C0  1D03               	skipz
  1294  04C1  2CC4               	goto	u1695
  1295  04C2  30AB               	movlw	171
  1296  04C3  0234               	subwf	_totalangleTurned,w
  1297  04C4                     u1695:	
  1298  04C4  1C03               	btfss	3,0
  1299  04C5  2CF5               	goto	l2103
  1300                           
  1301                           ;main.c: 135: Drive(0,250,0xFF,0xFF);
  1302                           
  1303                           ;main.c: 134: while (totalangleTurned >= -85){
  1304  04C6  30FA               	movlw	250
  1305  04C7  1283               	bcf	3,5	;RP0=0, select bank0
  1306  04C8  1303               	bcf	3,6	;RP1=0, select bank0
  1307  04C9  00E6               	movwf	??_main
  1308  04CA  0866               	movf	??_main,w
  1309  04CB  00C8               	movwf	Drive@speedL
  1310  04CC  30FF               	movlw	255
  1311  04CD  00E7               	movwf	??_main+1
  1312  04CE  0867               	movf	??_main+1,w
  1313  04CF  00C9               	movwf	Drive@radH
  1314  04D0  30FF               	movlw	255
  1315  04D1  00E8               	movwf	??_main+2
  1316  04D2  0868               	movf	??_main+2,w
  1317  04D3  00CA               	movwf	Drive@radL
  1318  04D4  3000               	movlw	0
  1319  04D5  120A  158A  2717  120A  118A  	fcall	_Drive
  1320                           
  1321                           ;main.c: 136: angleTurned = getSensorData(20,2);
  1322  04DA  3002               	movlw	2
  1323  04DB  1283               	bcf	3,5	;RP0=0, select bank0
  1324  04DC  1303               	bcf	3,6	;RP1=0, select bank0
  1325  04DD  00E6               	movwf	??_main
  1326  04DE  0866               	movf	??_main,w
  1327  04DF  00C9               	movwf	getSensorData@bytes
  1328  04E0  3014               	movlw	20
  1329  04E1  120A  118A  27C0  120A  118A  	fcall	_getSensorData
  1330  04E6  1283               	bcf	3,5	;RP0=0, select bank0
  1331  04E7  1303               	bcf	3,6	;RP1=0, select bank0
  1332  04E8  084A               	movf	?_getSensorData+1,w
  1333  04E9  00A5               	movwf	_angleTurned+1
  1334  04EA  0849               	movf	?_getSensorData,w
  1335  04EB  00A4               	movwf	_angleTurned
  1336                           
  1337                           ;main.c: 137: totalangleTurned = (totalangleTurned + angleTurned);
  1338  04EC  0824               	movf	_angleTurned,w
  1339  04ED  0734               	addwf	_totalangleTurned,w
  1340  04EE  00B4               	movwf	_totalangleTurned
  1341  04EF  0825               	movf	_angleTurned+1,w
  1342  04F0  1803               	skipnc
  1343  04F1  0A25               	incf	_angleTurned+1,w
  1344  04F2  0735               	addwf	_totalangleTurned+1,w
  1345  04F3  00B5               	movwf	_totalangleTurned+1
  1346  04F4  2CB9               	goto	l2101
  1347  04F5                     l2103:	
  1348                           
  1349                           ;main.c: 138: }
  1350                           ;main.c: 140: totalangleTurned = 0;
  1351  04F5  1283               	bcf	3,5	;RP0=0, select bank0
  1352  04F6  1303               	bcf	3,6	;RP1=0, select bank0
  1353  04F7  01B4               	clrf	_totalangleTurned
  1354  04F8  01B5               	clrf	_totalangleTurned+1
  1355                           
  1356                           ;main.c: 141: angleTurned = 0;
  1357  04F9  01A4               	clrf	_angleTurned
  1358  04FA  01A5               	clrf	_angleTurned+1
  1359                           
  1360                           ;main.c: 143: Drive(0,250,0x7F,0xFF);
  1361  04FB  30FA               	movlw	250
  1362  04FC  00E6               	movwf	??_main
  1363  04FD  0866               	movf	??_main,w
  1364  04FE  00C8               	movwf	Drive@speedL
  1365  04FF  307F               	movlw	127
  1366  0500  00E7               	movwf	??_main+1
  1367  0501  0867               	movf	??_main+1,w
  1368  0502  00C9               	movwf	Drive@radH
  1369  0503  30FF               	movlw	255
  1370  0504  00E8               	movwf	??_main+2
  1371  0505  0868               	movf	??_main+2,w
  1372  0506  00CA               	movwf	Drive@radL
  1373  0507  3000               	movlw	0
  1374  0508  120A  158A  2717  120A  118A  	fcall	_Drive
  1375  050D                     l2115:	
  1376                           ;main.c: 145: while (totalDistTrav < 1000){
  1377                           
  1378  050D  1283               	bcf	3,5	;RP0=0, select bank0
  1379  050E  1303               	bcf	3,6	;RP1=0, select bank0
  1380  050F  0833               	movf	_totalDistTrav+1,w
  1381  0510  3A80               	xorlw	128
  1382  0511  00FF               	movwf	127
  1383  0512  3083               	movlw	131
  1384  0513  027F               	subwf	127,w
  1385  0514  1D03               	skipz
  1386  0515  2D18               	goto	u1705
  1387  0516  30E8               	movlw	232
  1388  0517  0232               	subwf	_totalDistTrav,w
  1389  0518                     u1705:	
  1390  0518  1803               	btfsc	3,0
  1391  0519  2D46               	goto	l2117
  1392                           
  1393                           ;main.c: 146: distTrav = getSensorData(19,2);
  1394  051A  3002               	movlw	2
  1395  051B  1283               	bcf	3,5	;RP0=0, select bank0
  1396  051C  1303               	bcf	3,6	;RP1=0, select bank0
  1397  051D  00E6               	movwf	??_main
  1398  051E  0866               	movf	??_main,w
  1399  051F  00C9               	movwf	getSensorData@bytes
  1400  0520  3013               	movlw	19
  1401  0521  120A  118A  27C0  120A  118A  	fcall	_getSensorData
  1402  0526  1283               	bcf	3,5	;RP0=0, select bank0
  1403  0527  1303               	bcf	3,6	;RP1=0, select bank0
  1404  0528  084A               	movf	?_getSensorData+1,w
  1405  0529  00A9               	movwf	_distTrav+1
  1406  052A  0849               	movf	?_getSensorData,w
  1407  052B  00A8               	movwf	_distTrav
  1408                           
  1409                           ;main.c: 147: totalDistTrav = (totalDistTrav + distTrav);
  1410  052C  0828               	movf	_distTrav,w
  1411  052D  0732               	addwf	_totalDistTrav,w
  1412  052E  00B2               	movwf	_totalDistTrav
  1413  052F  0829               	movf	_distTrav+1,w
  1414  0530  1803               	skipnc
  1415  0531  0A29               	incf	_distTrav+1,w
  1416  0532  0733               	addwf	_totalDistTrav+1,w
  1417  0533  00B3               	movwf	_totalDistTrav+1
  1418                           
  1419                           ;main.c: 148: lcdSetCursor(0x00);
  1420  0534  3000               	movlw	0
  1421  0535  120A  158A  2642  120A  118A  	fcall	_lcdSetCursor
  1422                           
  1423                           ;main.c: 149: lcdWriteToDigitBCD(totalDistTrav);
  1424  053A  1283               	bcf	3,5	;RP0=0, select bank0
  1425  053B  1303               	bcf	3,6	;RP1=0, select bank0
  1426  053C  0833               	movf	_totalDistTrav+1,w
  1427  053D  00CB               	movwf	lcdWriteToDigitBCD@data+1
  1428  053E  0832               	movf	_totalDistTrav,w
  1429  053F  00CA               	movwf	lcdWriteToDigitBCD@data
  1430  0540  120A  118A  257C  120A  118A  	fcall	_lcdWriteToDigitBCD
  1431  0545  2D0D               	goto	l2115
  1432  0546                     l2117:	
  1433                           
  1434                           ;main.c: 150: }
  1435                           ;main.c: 151: totalDistTrav = 0;
  1436  0546  1283               	bcf	3,5	;RP0=0, select bank0
  1437  0547  1303               	bcf	3,6	;RP1=0, select bank0
  1438  0548  01B2               	clrf	_totalDistTrav
  1439  0549  01B3               	clrf	_totalDistTrav+1
  1440                           
  1441                           ;main.c: 152: DriveDirect(0,0,0,0);
  1442  054A  01C8               	clrf	DriveDirect@RightSpeedL
  1443  054B  01C9               	clrf	DriveDirect@LeftSpeedH
  1444  054C  01CA               	clrf	DriveDirect@LeftSpeedL
  1445  054D  3000               	movlw	0
  1446  054E  120A  158A  273F  120A  118A  	fcall	_DriveDirect
  1447  0553  3001               	movlw	1
  1448  0554  1283               	bcf	3,5	;RP0=0, select bank0
  1449  0555  1303               	bcf	3,6	;RP1=0, select bank0
  1450  0556  07AA               	addwf	_loop,f
  1451  0557  1803               	skipnc
  1452  0558  0AAB               	incf	_loop+1,f
  1453  0559  3000               	movlw	0
  1454  055A  07AB               	addwf	_loop+1,f
  1455  055B                     L1:	
  1456  055B  082B               	movf	_loop+1,w
  1457  055C  3A80               	xorlw	128
  1458  055D  00FF               	movwf	127
  1459  055E  3080               	movlw	128
  1460  055F  027F               	subwf	127,w
  1461  0560  1D03               	skipz
  1462  0561  2D64               	goto	u1715
  1463  0562  3004               	movlw	4
  1464  0563  022A               	subwf	_loop,w
  1465  0564                     u1715:	
  1466  0564  1C03               	skipc
  1467  0565  2CB9               	goto	l2101
  1468                           
  1469                           ;main.c: 154: }
  1470                           ;main.c: 156: DriveDirect(0,0,0,0);
  1471  0566  1283               	bcf	3,5	;RP0=0, select bank0
  1472  0567  1303               	bcf	3,6	;RP1=0, select bank0
  1473  0568  01C8               	clrf	DriveDirect@RightSpeedL
  1474  0569  01C9               	clrf	DriveDirect@LeftSpeedH
  1475  056A  01CA               	clrf	DriveDirect@LeftSpeedL
  1476  056B  3000               	movlw	0
  1477  056C  120A  158A  273F  120A  118A  	fcall	_DriveDirect
  1478  0571                     l2127:	
  1479                           
  1480                           ;main.c: 158: }
  1481                           ;main.c: 161: if(getSensorData(18,1) == 0b00000101){
  1482  0571  1283               	bcf	3,5	;RP0=0, select bank0
  1483  0572  1303               	bcf	3,6	;RP1=0, select bank0
  1484  0573  01C9               	clrf	getSensorData@bytes
  1485  0574  0AC9               	incf	getSensorData@bytes,f
  1486  0575  3012               	movlw	18
  1487  0576  120A  118A  27C0  120A  118A  	fcall	_getSensorData
  1488  057B  2BE0               	goto	l2039
  1489  057C                     __end_of_main:	
  1490                           
  1491                           	psect	text1
  1492  0E70                     __ptext1:	
  1493 ;; *************** function _spi_transfer *****************
  1494 ;; Defined at:
  1495 ;;		line 23 in file "SPI.c"
  1496 ;; Parameters:    Size  Location     Type
  1497 ;;  data            1    wreg     unsigned char 
  1498 ;; Auto vars:     Size  Location     Type
  1499 ;;  data            1    2[BANK0 ] unsigned char 
  1500 ;;  temp            1    1[BANK0 ] unsigned char 
  1501 ;; Return value:  Size  Location     Type
  1502 ;;                  1    wreg      unsigned char 
  1503 ;; Registers used:
  1504 ;;		wreg, status,2
  1505 ;; Tracked objects:
  1506 ;;		On entry : 0/0
  1507 ;;		On exit  : 0/0
  1508 ;;		Unchanged: 0/0
  1509 ;; Data sizes:     COMMON   BANK0   BANK1   BANK3   BANK2
  1510 ;;      Params:         0       0       0       0       0
  1511 ;;      Locals:         0       2       0       0       0
  1512 ;;      Temps:          0       1       0       0       0
  1513 ;;      Totals:         0       3       0       0       0
  1514 ;;Total ram usage:        3 bytes
  1515 ;; Hardware stack levels used:    1
  1516 ;; Hardware stack levels required when called:    2
  1517 ;; This function calls:
  1518 ;;		Nothing
  1519 ;; This function is called by:
  1520 ;;		_main
  1521 ;; This function uses a non-reentrant model
  1522 ;;
  1523                           
  1524                           
  1525                           ;psect for function _spi_transfer
  1526  0E70                     _spi_transfer:	
  1527                           
  1528                           ;incstack = 0
  1529                           ; Regs used in _spi_transfer: [wreg+status,2]
  1530                           ;spi_transfer@data stored from wreg
  1531  0E70  1283               	bcf	3,5	;RP0=0, select bank0
  1532  0E71  1303               	bcf	3,6	;RP1=0, select bank0
  1533  0E72  00C9               	movwf	spi_transfer@data
  1534                           
  1535                           ;SPI.c: 24: unsigned char temp = 0;
  1536  0E73  01C8               	clrf	spi_transfer@temp
  1537                           
  1538                           ;SPI.c: 26: SSPIF = 0;
  1539  0E74  118C               	bcf	12,3	;volatile
  1540                           
  1541                           ;SPI.c: 27: SSPBUF = data;
  1542  0E75  0849               	movf	spi_transfer@data,w
  1543  0E76  0093               	movwf	19	;volatile
  1544  0E77                     l265:	
  1545                           ;SPI.c: 29: while (SSPIF == 0);
  1546                           
  1547  0E77  1D8C               	btfss	12,3	;volatile
  1548  0E78  2E77               	goto	l265
  1549                           
  1550                           ;SPI.c: 30: temp = SSPBUF;
  1551  0E79  0813               	movf	19,w	;volatile
  1552  0E7A  00C7               	movwf	??_spi_transfer
  1553  0E7B  0847               	movf	??_spi_transfer,w
  1554  0E7C  00C8               	movwf	spi_transfer@temp
  1555                           
  1556                           ;SPI.c: 31: SSPIF = 0;
  1557  0E7D  118C               	bcf	12,3	;volatile
  1558  0E7E  0008               	return
  1559  0E7F                     __end_of_spi_transfer:	
  1560                           ;SPI.c: 33: return temp;
  1561                           ;	Return value of _spi_transfer is never used
  1562                           
  1563                           
  1564                           	psect	text2
  1565  0EBC                     __ptext2:	
  1566 ;; *************** function _setupSPI *****************
  1567 ;; Defined at:
  1568 ;;		line 4 in file "SPI.c"
  1569 ;; Parameters:    Size  Location     Type
  1570 ;;		None
  1571 ;; Auto vars:     Size  Location     Type
  1572 ;;		None
  1573 ;; Return value:  Size  Location     Type
  1574 ;;                  1    wreg      void 
  1575 ;; Registers used:
  1576 ;;		wreg, status,2
  1577 ;; Tracked objects:
  1578 ;;		On entry : 0/0
  1579 ;;		On exit  : 0/0
  1580 ;;		Unchanged: 0/0
  1581 ;; Data sizes:     COMMON   BANK0   BANK1   BANK3   BANK2
  1582 ;;      Params:         0       0       0       0       0
  1583 ;;      Locals:         0       0       0       0       0
  1584 ;;      Temps:          0       0       0       0       0
  1585 ;;      Totals:         0       0       0       0       0
  1586 ;;Total ram usage:        0 bytes
  1587 ;; Hardware stack levels used:    1
  1588 ;; Hardware stack levels required when called:    2
  1589 ;; This function calls:
  1590 ;;		Nothing
  1591 ;; This function is called by:
  1592 ;;		_main
  1593 ;; This function uses a non-reentrant model
  1594 ;;
  1595                           
  1596                           
  1597                           ;psect for function _setupSPI
  1598  0EBC                     _setupSPI:	
  1599                           
  1600                           ;SPI.c: 6: TRISB = 0b00000000;
  1601                           
  1602                           ;incstack = 0
  1603                           ; Regs used in _setupSPI: [wreg+status,2]
  1604  0EBC  1683               	bsf	3,5	;RP0=1, select bank1
  1605  0EBD  1303               	bcf	3,6	;RP1=0, select bank1
  1606  0EBE  0186               	clrf	6	;volatile
  1607                           
  1608                           ;SPI.c: 8: SSPSTAT = 0b01000000;
  1609  0EBF  3040               	movlw	64
  1610  0EC0  0094               	movwf	20	;volatile
  1611                           
  1612                           ;SPI.c: 9: SSPCON = 0b00100000;
  1613  0EC1  3020               	movlw	32
  1614  0EC2  1283               	bcf	3,5	;RP0=0, select bank0
  1615  0EC3  1303               	bcf	3,6	;RP1=0, select bank0
  1616  0EC4  0094               	movwf	20	;volatile
  1617                           
  1618                           ;SPI.c: 10: TRISC = 0b11010000;
  1619  0EC5  30D0               	movlw	208
  1620  0EC6  1683               	bsf	3,5	;RP0=1, select bank1
  1621  0EC7  1303               	bcf	3,6	;RP1=0, select bank1
  1622  0EC8  0087               	movwf	7	;volatile
  1623                           
  1624                           ;SPI.c: 11: PORTC = 0b00000011;
  1625  0EC9  3003               	movlw	3
  1626  0ECA  1283               	bcf	3,5	;RP0=0, select bank0
  1627  0ECB  1303               	bcf	3,6	;RP1=0, select bank0
  1628  0ECC  0087               	movwf	7	;volatile
  1629                           
  1630                           ;SPI.c: 14: OPTION_REG = 0b00000100;
  1631  0ECD  3004               	movlw	4
  1632  0ECE  1683               	bsf	3,5	;RP0=1, select bank1
  1633  0ECF  1303               	bcf	3,6	;RP1=0, select bank1
  1634  0ED0  0081               	movwf	1	;volatile
  1635                           
  1636                           ;SPI.c: 16: TMR0IE = 1;
  1637  0ED1  168B               	bsf	11,5	;volatile
  1638                           
  1639                           ;SPI.c: 19: (GIE = 1);
  1640  0ED2  178B               	bsf	11,7	;volatile
  1641  0ED3  0008               	return
  1642  0ED4                     __end_of_setupSPI:	
  1643                           
  1644                           	psect	text3
  1645  0F67                     __ptext3:	
  1646 ;; *************** function _setupLCD *****************
  1647 ;; Defined at:
  1648 ;;		line 86 in file "LCD.c"
  1649 ;; Parameters:    Size  Location     Type
  1650 ;;		None
  1651 ;; Auto vars:     Size  Location     Type
  1652 ;;		None
  1653 ;; Return value:  Size  Location     Type
  1654 ;;                  1    wreg      void 
  1655 ;; Registers used:
  1656 ;;		wreg, status,2, status,0, pclath, cstack
  1657 ;; Tracked objects:
  1658 ;;		On entry : 0/0
  1659 ;;		On exit  : 0/0
  1660 ;;		Unchanged: 0/0
  1661 ;; Data sizes:     COMMON   BANK0   BANK1   BANK3   BANK2
  1662 ;;      Params:         0       0       0       0       0
  1663 ;;      Locals:         0       0       0       0       0
  1664 ;;      Temps:          0       0       0       0       0
  1665 ;;      Totals:         0       0       0       0       0
  1666 ;;Total ram usage:        0 bytes
  1667 ;; Hardware stack levels used:    1
  1668 ;; Hardware stack levels required when called:    3
  1669 ;; This function calls:
  1670 ;;		_lcdWriteControl
  1671 ;; This function is called by:
  1672 ;;		_main
  1673 ;; This function uses a non-reentrant model
  1674 ;;
  1675                           
  1676                           
  1677                           ;psect for function _setupLCD
  1678  0F67                     _setupLCD:	
  1679                           
  1680                           ;LCD.c: 88: ADCON1 = 0b00000010;
  1681                           
  1682                           ;incstack = 0
  1683                           ; Regs used in _setupLCD: [wreg+status,2+status,0+pclath+cstack]
  1684  0F67  3002               	movlw	2
  1685  0F68  1683               	bsf	3,5	;RP0=1, select bank1
  1686  0F69  1303               	bcf	3,6	;RP1=0, select bank1
  1687  0F6A  009F               	movwf	31	;volatile
  1688                           
  1689                           ;LCD.c: 90: PORTD = 0;
  1690  0F6B  1283               	bcf	3,5	;RP0=0, select bank0
  1691  0F6C  1303               	bcf	3,6	;RP1=0, select bank0
  1692  0F6D  0188               	clrf	8	;volatile
  1693                           
  1694                           ;LCD.c: 91: PORTE = 0;
  1695  0F6E  0189               	clrf	9	;volatile
  1696                           
  1697                           ;LCD.c: 93: TRISD = 0b00000000;
  1698  0F6F  1683               	bsf	3,5	;RP0=1, select bank1
  1699  0F70  1303               	bcf	3,6	;RP1=0, select bank1
  1700  0F71  0188               	clrf	8	;volatile
  1701                           
  1702                           ;LCD.c: 94: TRISE = 0b00000000;
  1703  0F72  0189               	clrf	9	;volatile
  1704                           
  1705                           ;LCD.c: 97: lcdWriteControl(0b00000001);
  1706  0F73  3001               	movlw	1
  1707  0F74  120A  158A  2692  120A  158A  	fcall	_lcdWriteControl
  1708                           
  1709                           ;LCD.c: 98: lcdWriteControl(0b00111000);
  1710  0F79  3038               	movlw	56
  1711  0F7A  120A  158A  2692  120A  158A  	fcall	_lcdWriteControl
  1712                           
  1713                           ;LCD.c: 99: lcdWriteControl(0b00001100);
  1714  0F7F  300C               	movlw	12
  1715  0F80  120A  158A  2692  120A  158A  	fcall	_lcdWriteControl
  1716                           
  1717                           ;LCD.c: 100: lcdWriteControl(0b00000110);
  1718  0F85  3006               	movlw	6
  1719  0F86  120A  158A  2692  120A  158A  	fcall	_lcdWriteControl
  1720                           
  1721                           ;LCD.c: 101: lcdWriteControl(0b00000010);
  1722  0F8B  3002               	movlw	2
  1723  0F8C  120A  158A  2692   	fcall	_lcdWriteControl
  1724  0F8F  0008               	return
  1725  0F90                     __end_of_setupLCD:	
  1726                           
  1727                           	psect	text4
  1728  0EA6                     __ptext4:	
  1729 ;; *************** function _setupADC *****************
  1730 ;; Defined at:
  1731 ;;		line 8 in file "ADC.c"
  1732 ;; Parameters:    Size  Location     Type
  1733 ;;		None
  1734 ;; Auto vars:     Size  Location     Type
  1735 ;;		None
  1736 ;; Return value:  Size  Location     Type
  1737 ;;                  1    wreg      void 
  1738 ;; Registers used:
  1739 ;;		wreg, status,2
  1740 ;; Tracked objects:
  1741 ;;		On entry : 0/0
  1742 ;;		On exit  : 0/0
  1743 ;;		Unchanged: 0/0
  1744 ;; Data sizes:     COMMON   BANK0   BANK1   BANK3   BANK2
  1745 ;;      Params:         0       0       0       0       0
  1746 ;;      Locals:         0       0       0       0       0
  1747 ;;      Temps:          0       1       0       0       0
  1748 ;;      Totals:         0       1       0       0       0
  1749 ;;Total ram usage:        1 bytes
  1750 ;; Hardware stack levels used:    1
  1751 ;; Hardware stack levels required when called:    2
  1752 ;; This function calls:
  1753 ;;		Nothing
  1754 ;; This function is called by:
  1755 ;;		_main
  1756 ;; This function uses a non-reentrant model
  1757 ;;
  1758                           
  1759                           
  1760                           ;psect for function _setupADC
  1761  0EA6                     _setupADC:	
  1762                           
  1763                           ;ADC.c: 9: PORTA = 0;
  1764                           
  1765                           ;incstack = 0
  1766                           ; Regs used in _setupADC: [wreg+status,2]
  1767  0EA6  1283               	bcf	3,5	;RP0=0, select bank0
  1768  0EA7  1303               	bcf	3,6	;RP1=0, select bank0
  1769  0EA8  0185               	clrf	5	;volatile
  1770                           
  1771                           ;ADC.c: 10: TRISA = 0b11111111;
  1772  0EA9  30FF               	movlw	255
  1773  0EAA  1683               	bsf	3,5	;RP0=1, select bank1
  1774  0EAB  1303               	bcf	3,6	;RP1=0, select bank1
  1775  0EAC  0085               	movwf	5	;volatile
  1776                           
  1777                           ;ADC.c: 13: ADCON0 = 0b10001001;
  1778  0EAD  3089               	movlw	137
  1779  0EAE  1283               	bcf	3,5	;RP0=0, select bank0
  1780  0EAF  1303               	bcf	3,6	;RP1=0, select bank0
  1781  0EB0  009F               	movwf	31	;volatile
  1782                           
  1783                           ;ADC.c: 14: ADCON1 = 0b00000010;
  1784  0EB1  3002               	movlw	2
  1785  0EB2  1683               	bsf	3,5	;RP0=1, select bank1
  1786  0EB3  1303               	bcf	3,6	;RP1=0, select bank1
  1787  0EB4  009F               	movwf	31	;volatile
  1788                           
  1789                           ;ADC.c: 16: _delay((unsigned long)((50)*(20000000/4000000.0)));
  1790  0EB5  3053               	movlw	83
  1791  0EB6  1283               	bcf	3,5	;RP0=0, select bank0
  1792  0EB7  1303               	bcf	3,6	;RP1=0, select bank0
  1793  0EB8  00C7               	movwf	??_setupADC
  1794  0EB9                     u1777:	
  1795  0EB9  0BC7               	decfsz	??_setupADC,f
  1796  0EBA  2EB9               	goto	u1777
  1797  0EBB  0008               	return
  1798  0EBC                     __end_of_setupADC:	
  1799                           
  1800                           	psect	text5
  1801  0E61                     __ptext5:	
  1802 ;; *************** function _ser_init *****************
  1803 ;; Defined at:
  1804 ;;		line 5 in file "ser.c"
  1805 ;; Parameters:    Size  Location     Type
  1806 ;;		None
  1807 ;; Auto vars:     Size  Location     Type
  1808 ;;		None
  1809 ;; Return value:  Size  Location     Type
  1810 ;;                  1    wreg      void 
  1811 ;; Registers used:
  1812 ;;		wreg
  1813 ;; Tracked objects:
  1814 ;;		On entry : 0/0
  1815 ;;		On exit  : 0/0
  1816 ;;		Unchanged: 0/0
  1817 ;; Data sizes:     COMMON   BANK0   BANK1   BANK3   BANK2
  1818 ;;      Params:         0       0       0       0       0
  1819 ;;      Locals:         0       0       0       0       0
  1820 ;;      Temps:          0       0       0       0       0
  1821 ;;      Totals:         0       0       0       0       0
  1822 ;;Total ram usage:        0 bytes
  1823 ;; Hardware stack levels used:    1
  1824 ;; Hardware stack levels required when called:    2
  1825 ;; This function calls:
  1826 ;;		Nothing
  1827 ;; This function is called by:
  1828 ;;		_main
  1829 ;; This function uses a non-reentrant model
  1830 ;;
  1831                           
  1832                           
  1833                           ;psect for function _ser_init
  1834  0E61                     _ser_init:	
  1835                           
  1836                           ;ser.c: 7: TXSTA = 0b00100100;
  1837                           
  1838                           ;incstack = 0
  1839                           ; Regs used in _ser_init: [wreg]
  1840  0E61  3024               	movlw	36
  1841  0E62  1683               	bsf	3,5	;RP0=1, select bank1
  1842  0E63  1303               	bcf	3,6	;RP1=0, select bank1
  1843  0E64  0098               	movwf	24	;volatile
  1844                           
  1845                           ;ser.c: 8: RCSTA = 0b10011000;
  1846  0E65  3098               	movlw	152
  1847  0E66  1283               	bcf	3,5	;RP0=0, select bank0
  1848  0E67  1303               	bcf	3,6	;RP1=0, select bank0
  1849  0E68  0098               	movwf	24	;volatile
  1850                           
  1851                           ;ser.c: 24: SPBRG = 20;
  1852  0E69  3014               	movlw	20
  1853  0E6A  1683               	bsf	3,5	;RP0=1, select bank1
  1854  0E6B  1303               	bcf	3,6	;RP1=0, select bank1
  1855  0E6C  0099               	movwf	25	;volatile
  1856                           
  1857                           ;ser.c: 26: PEIE = 1;
  1858  0E6D  170B               	bsf	11,6	;volatile
  1859                           
  1860                           ;ser.c: 27: (GIE = 1);
  1861  0E6E  178B               	bsf	11,7	;volatile
  1862  0E6F  0008               	return
  1863  0E70                     __end_of_ser_init:	
  1864                           
  1865                           	psect	text6
  1866  06A2                     __ptext6:	
  1867 ;; *************** function _moveCW *****************
  1868 ;; Defined at:
  1869 ;;		line 5 in file "motor.c"
  1870 ;; Parameters:    Size  Location     Type
  1871 ;;		None
  1872 ;; Auto vars:     Size  Location     Type
  1873 ;;		None
  1874 ;; Return value:  Size  Location     Type
  1875 ;;                  1    wreg      void 
  1876 ;; Registers used:
  1877 ;;		wreg, fsr0l, fsr0h, status,2, status,0
  1878 ;; Tracked objects:
  1879 ;;		On entry : 0/0
  1880 ;;		On exit  : 0/0
  1881 ;;		Unchanged: 0/0
  1882 ;; Data sizes:     COMMON   BANK0   BANK1   BANK3   BANK2
  1883 ;;      Params:         0       0       0       0       0
  1884 ;;      Locals:         0       0       0       0       0
  1885 ;;      Temps:          0       2       0       0       0
  1886 ;;      Totals:         0       2       0       0       0
  1887 ;;Total ram usage:        2 bytes
  1888 ;; Hardware stack levels used:    1
  1889 ;; Hardware stack levels required when called:    2
  1890 ;; This function calls:
  1891 ;;		Nothing
  1892 ;; This function is called by:
  1893 ;;		_main
  1894 ;; This function uses a non-reentrant model
  1895 ;;
  1896                           
  1897                           
  1898                           ;psect for function _moveCW
  1899  06A2                     _moveCW:	
  1900                           
  1901                           ;motor.c: 8: if (stepCount == 0) negativeFlag = 1;
  1902                           
  1903                           ;incstack = 0
  1904                           ; Regs used in _moveCW: [wreg-fsr0h+status,2+status,0]
  1905  06A2  1283               	bcf	3,5	;RP0=0, select bank0
  1906  06A3  1303               	bcf	3,6	;RP1=0, select bank0
  1907  06A4  0845               	movf	_stepCount,w
  1908  06A5  1D03               	btfss	3,2
  1909  06A6  2EA9               	goto	l1853
  1910  06A7  01C0               	clrf	_negativeFlag
  1911  06A8  0AC0               	incf	_negativeFlag,f
  1912  06A9                     l1853:	
  1913                           
  1914                           ;motor.c: 10: stepCount--;
  1915  06A9  30FF               	movlw	255
  1916  06AA  00C7               	movwf	??_moveCW
  1917  06AB  0847               	movf	??_moveCW,w
  1918  06AC  07C5               	addwf	_stepCount,f
  1919                           
  1920                           ;motor.c: 13: switch(currentStep){
  1921  06AD  2EC9               	goto	l1889
  1922  06AE                     l1855:	
  1923                           ;motor.c: 15: case 7: PORTC = 0b00011011;
  1924                           
  1925  06AE  301B               	movlw	27
  1926  06AF  2EBB               	goto	L2
  1927  06B0                     l1859:	
  1928                           ;motor.c: 19: case 6: PORTC = 0b00010111;
  1929                           
  1930                           ;motor.c: 17: break;
  1931                           
  1932                           ;motor.c: 16: currentStep--;
  1933                           
  1934  06B0  3017               	movlw	23
  1935  06B1  2EBB               	goto	L2
  1936  06B2                     l1863:	
  1937                           ;motor.c: 23: case 5: PORTC = 0b00110101;
  1938                           
  1939                           ;motor.c: 21: break;
  1940                           
  1941                           ;motor.c: 20: currentStep--;
  1942                           
  1943  06B2  3035               	movlw	53
  1944  06B3  2EBB               	goto	L2
  1945  06B4                     l1867:	
  1946                           ;motor.c: 27: case 4: PORTC = 0b00100111;
  1947                           
  1948                           ;motor.c: 25: break;
  1949                           
  1950                           ;motor.c: 24: currentStep--;
  1951                           
  1952  06B4  3027               	movlw	39
  1953  06B5  2EBB               	goto	L2
  1954  06B6                     l1871:	
  1955                           ;motor.c: 31: case 3: PORTC = 0b00101011;
  1956                           
  1957                           ;motor.c: 29: break;
  1958                           
  1959                           ;motor.c: 28: currentStep--;
  1960                           
  1961  06B6  302B               	movlw	43
  1962  06B7  2EBB               	goto	L2
  1963  06B8                     l1875:	
  1964                           ;motor.c: 35: case 2: PORTC = 0b00101110;
  1965                           
  1966                           ;motor.c: 33: break;
  1967                           
  1968                           ;motor.c: 32: currentStep--;
  1969                           
  1970  06B8  302E               	movlw	46
  1971  06B9  2EBB               	goto	L2
  1972  06BA                     l1879:	
  1973                           ;motor.c: 39: case 1: PORTC = 0b00111100;
  1974                           
  1975                           ;motor.c: 37: break;
  1976                           
  1977                           ;motor.c: 36: currentStep--;
  1978                           
  1979  06BA  303C               	movlw	60
  1980  06BB                     L2:	
  1981  06BB  0087               	movwf	7	;volatile
  1982                           
  1983                           ;motor.c: 40: currentStep--;
  1984  06BC  3001               	movlw	1
  1985  06BD  02FB               	subwf	_currentStep,f
  1986                           
  1987                           ;motor.c: 41: break;
  1988  06BE  2EE3               	goto	l1891
  1989  06BF                     l1883:	
  1990                           ;motor.c: 43: case 0: PORTC = 0b00011110;
  1991                           
  1992  06BF  301E               	movlw	30
  1993  06C0  0087               	movwf	7	;volatile
  1994                           
  1995                           ;motor.c: 44: currentStep = 7;
  1996  06C1  3007               	movlw	7
  1997  06C2  00C7               	movwf	??_moveCW
  1998  06C3  0847               	movf	??_moveCW,w
  1999  06C4  00FB               	movwf	_currentStep
  2000                           
  2001                           ;motor.c: 45: break;
  2002  06C5  2EE3               	goto	l1891
  2003  06C6                     l1885:	
  2004                           ;motor.c: 47: default: PORTC = 0b00111001;
  2005                           
  2006  06C6  3039               	movlw	57
  2007  06C7  0087               	movwf	7	;volatile
  2008                           
  2009                           ;motor.c: 49: }
  2010                           
  2011                           ;motor.c: 48: break;
  2012  06C8  2EE3               	goto	l1891
  2013  06C9                     l1889:	
  2014  06C9  087B               	movf	_currentStep,w
  2015                           
  2016                           ; Switch size 1, requested type "space"
  2017                           ; Number of cases is 8, Range of values is 0 to 7
  2018                           ; switch strategies available:
  2019                           ; Name         Instructions Cycles
  2020                           ; simple_byte           25    13 (average)
  2021                           ; direct_byte           32     8 (fixed)
  2022                           ; jumptable            260     6 (fixed)
  2023                           ;	Chosen strategy is simple_byte
  2024  06CA  3A00               	xorlw	0	; case 0
  2025  06CB  1903               	skipnz
  2026  06CC  2EBF               	goto	l1883
  2027  06CD  3A01               	xorlw	1	; case 1
  2028  06CE  1903               	skipnz
  2029  06CF  2EBA               	goto	l1879
  2030  06D0  3A03               	xorlw	3	; case 2
  2031  06D1  1903               	skipnz
  2032  06D2  2EB8               	goto	l1875
  2033  06D3  3A01               	xorlw	1	; case 3
  2034  06D4  1903               	skipnz
  2035  06D5  2EB6               	goto	l1871
  2036  06D6  3A07               	xorlw	7	; case 4
  2037  06D7  1903               	skipnz
  2038  06D8  2EB4               	goto	l1867
  2039  06D9  3A01               	xorlw	1	; case 5
  2040  06DA  1903               	skipnz
  2041  06DB  2EB2               	goto	l1863
  2042  06DC  3A03               	xorlw	3	; case 6
  2043  06DD  1903               	skipnz
  2044  06DE  2EB0               	goto	l1859
  2045  06DF  3A01               	xorlw	1	; case 7
  2046  06E0  1903               	skipnz
  2047  06E1  2EAE               	goto	l1855
  2048  06E2  2EC6               	goto	l1885
  2049  06E3                     l1891:	
  2050                           
  2051                           ;motor.c: 51: _delay((unsigned long)((3)*(20000000/4000.0)));
  2052  06E3  3014               	movlw	20
  2053  06E4  00C8               	movwf	??_moveCW+1
  2054  06E5  3079               	movlw	121
  2055  06E6  00C7               	movwf	??_moveCW
  2056  06E7                     u1787:	
  2057  06E7  0BC7               	decfsz	??_moveCW,f
  2058  06E8  2EE7               	goto	u1787
  2059  06E9  0BC8               	decfsz	??_moveCW+1,f
  2060  06EA  2EE7               	goto	u1787
  2061  06EB  2EEC               	nop2
  2062  06EC  0008               	return
  2063  06ED                     __end_of_moveCW:	
  2064                           
  2065                           	psect	text7
  2066  06ED                     __ptext7:	
  2067 ;; *************** function _moveCCW *****************
  2068 ;; Defined at:
  2069 ;;		line 55 in file "motor.c"
  2070 ;; Parameters:    Size  Location     Type
  2071 ;;		None
  2072 ;; Auto vars:     Size  Location     Type
  2073 ;;		None
  2074 ;; Return value:  Size  Location     Type
  2075 ;;                  1    wreg      void 
  2076 ;; Registers used:
  2077 ;;		wreg, fsr0l, fsr0h, status,2, status,0
  2078 ;; Tracked objects:
  2079 ;;		On entry : 0/0
  2080 ;;		On exit  : 0/0
  2081 ;;		Unchanged: 0/0
  2082 ;; Data sizes:     COMMON   BANK0   BANK1   BANK3   BANK2
  2083 ;;      Params:         0       0       0       0       0
  2084 ;;      Locals:         0       0       0       0       0
  2085 ;;      Temps:          0       2       0       0       0
  2086 ;;      Totals:         0       2       0       0       0
  2087 ;;Total ram usage:        2 bytes
  2088 ;; Hardware stack levels used:    1
  2089 ;; Hardware stack levels required when called:    2
  2090 ;; This function calls:
  2091 ;;		Nothing
  2092 ;; This function is called by:
  2093 ;;		_main
  2094 ;; This function uses a non-reentrant model
  2095 ;;
  2096                           
  2097                           
  2098                           ;psect for function _moveCCW
  2099  06ED                     _moveCCW:	
  2100                           
  2101                           ;motor.c: 57: if (stepCount == (-1)) negativeFlag = 0;
  2102                           
  2103                           ;incstack = 0
  2104                           ; Regs used in _moveCCW: [wreg-fsr0h+status,2+status,0]
  2105  06ED  1283               	bcf	3,5	;RP0=0, select bank0
  2106  06EE  1303               	bcf	3,6	;RP1=0, select bank0
  2107  06EF  0A45               	incf	_stepCount,w
  2108  06F0  1903               	btfsc	3,2
  2109  06F1  01C0               	clrf	_negativeFlag
  2110                           
  2111                           ;motor.c: 59: stepCount++;
  2112  06F2  3001               	movlw	1
  2113  06F3  00C7               	movwf	??_moveCCW
  2114  06F4  0847               	movf	??_moveCCW,w
  2115  06F5  07C5               	addwf	_stepCount,f
  2116                           
  2117                           ;motor.c: 62: switch(currentStep){
  2118  06F6  2F11               	goto	l1943
  2119  06F7                     l1907:	
  2120                           ;motor.c: 63: case 0: PORTC = 0b00101110;
  2121                           
  2122  06F7  302E               	movlw	46
  2123  06F8  2F04               	goto	L3
  2124  06F9                     l1911:	
  2125                           ;motor.c: 67: case 1: PORTC = 0b00101011;
  2126                           
  2127                           ;motor.c: 65: break;
  2128                           
  2129                           ;motor.c: 64: currentStep++;
  2130                           
  2131  06F9  302B               	movlw	43
  2132  06FA  2F04               	goto	L3
  2133  06FB                     l1915:	
  2134                           ;motor.c: 71: case 2: PORTC = 0b00100111;
  2135                           
  2136                           ;motor.c: 69: break;
  2137                           
  2138                           ;motor.c: 68: currentStep++;
  2139                           
  2140  06FB  3027               	movlw	39
  2141  06FC  2F04               	goto	L3
  2142  06FD                     l1919:	
  2143                           ;motor.c: 75: case 3: PORTC = 0b00110101;
  2144                           
  2145                           ;motor.c: 73: break;
  2146                           
  2147                           ;motor.c: 72: currentStep++;
  2148                           
  2149  06FD  3035               	movlw	53
  2150  06FE  2F04               	goto	L3
  2151  06FF                     l1923:	
  2152                           ;motor.c: 79: case 4: PORTC = 0b00010111;
  2153                           
  2154                           ;motor.c: 77: break;
  2155                           
  2156                           ;motor.c: 76: currentStep++;
  2157                           
  2158  06FF  3017               	movlw	23
  2159  0700  2F04               	goto	L3
  2160  0701                     l1927:	
  2161                           ;motor.c: 83: case 5: PORTC = 0b00011011;
  2162                           
  2163                           ;motor.c: 81: break;
  2164                           
  2165                           ;motor.c: 80: currentStep++;
  2166                           
  2167  0701  301B               	movlw	27
  2168  0702  2F04               	goto	L3
  2169  0703                     l1931:	
  2170                           ;motor.c: 87: case 6: PORTC = 0b00011110;
  2171                           
  2172                           ;motor.c: 85: break;
  2173                           
  2174                           ;motor.c: 84: currentStep++;
  2175                           
  2176  0703  301E               	movlw	30
  2177  0704                     L3:	
  2178  0704  0087               	movwf	7	;volatile
  2179                           
  2180                           ;motor.c: 88: currentStep++;
  2181  0705  3001               	movlw	1
  2182  0706  00C7               	movwf	??_moveCCW
  2183  0707  0847               	movf	??_moveCCW,w
  2184  0708  07FB               	addwf	_currentStep,f
  2185                           
  2186                           ;motor.c: 89: break;
  2187  0709  2F2B               	goto	l1945
  2188  070A                     l1935:	
  2189                           ;motor.c: 91: case 7: PORTC = 0b00111100;
  2190                           
  2191  070A  303C               	movlw	60
  2192  070B  0087               	movwf	7	;volatile
  2193                           
  2194                           ;motor.c: 92: currentStep = 0;
  2195  070C  01FB               	clrf	_currentStep
  2196                           
  2197                           ;motor.c: 93: break;
  2198  070D  2F2B               	goto	l1945
  2199  070E                     l1939:	
  2200                           ;motor.c: 95: default: PORTC = 0b00111001;
  2201                           
  2202  070E  3039               	movlw	57
  2203  070F  0087               	movwf	7	;volatile
  2204                           
  2205                           ;motor.c: 97: }
  2206                           
  2207                           ;motor.c: 96: break;
  2208  0710  2F2B               	goto	l1945
  2209  0711                     l1943:	
  2210  0711  087B               	movf	_currentStep,w
  2211                           
  2212                           ; Switch size 1, requested type "space"
  2213                           ; Number of cases is 8, Range of values is 0 to 7
  2214                           ; switch strategies available:
  2215                           ; Name         Instructions Cycles
  2216                           ; simple_byte           25    13 (average)
  2217                           ; direct_byte           32     8 (fixed)
  2218                           ; jumptable            260     6 (fixed)
  2219                           ;	Chosen strategy is simple_byte
  2220  0712  3A00               	xorlw	0	; case 0
  2221  0713  1903               	skipnz
  2222  0714  2EF7               	goto	l1907
  2223  0715  3A01               	xorlw	1	; case 1
  2224  0716  1903               	skipnz
  2225  0717  2EF9               	goto	l1911
  2226  0718  3A03               	xorlw	3	; case 2
  2227  0719  1903               	skipnz
  2228  071A  2EFB               	goto	l1915
  2229  071B  3A01               	xorlw	1	; case 3
  2230  071C  1903               	skipnz
  2231  071D  2EFD               	goto	l1919
  2232  071E  3A07               	xorlw	7	; case 4
  2233  071F  1903               	skipnz
  2234  0720  2EFF               	goto	l1923
  2235  0721  3A01               	xorlw	1	; case 5
  2236  0722  1903               	skipnz
  2237  0723  2F01               	goto	l1927
  2238  0724  3A03               	xorlw	3	; case 6
  2239  0725  1903               	skipnz
  2240  0726  2F03               	goto	l1931
  2241  0727  3A01               	xorlw	1	; case 7
  2242  0728  1903               	skipnz
  2243  0729  2F0A               	goto	l1935
  2244  072A  2F0E               	goto	l1939
  2245  072B                     l1945:	
  2246                           
  2247                           ;motor.c: 99: _delay((unsigned long)((3)*(20000000/4000.0)));
  2248  072B  3014               	movlw	20
  2249  072C  00C8               	movwf	??_moveCCW+1
  2250  072D  3079               	movlw	121
  2251  072E  00C7               	movwf	??_moveCCW
  2252  072F                     u1797:	
  2253  072F  0BC7               	decfsz	??_moveCCW,f
  2254  0730  2F2F               	goto	u1797
  2255  0731  0BC8               	decfsz	??_moveCCW+1,f
  2256  0732  2F2F               	goto	u1797
  2257  0733  2F34               	nop2
  2258  0734  0008               	return
  2259  0735                     __end_of_moveCCW:	
  2260                           
  2261                           	psect	text8
  2262  07C0                     __ptext8:	
  2263 ;; *************** function _getSensorData *****************
  2264 ;; Defined at:
  2265 ;;		line 62 in file "ser.c"
  2266 ;; Parameters:    Size  Location     Type
  2267 ;;  packetID        1    wreg     unsigned char 
  2268 ;;  bytes           1    2[BANK0 ] unsigned char 
  2269 ;; Auto vars:     Size  Location     Type
  2270 ;;  packetID        1    8[BANK0 ] unsigned char 
  2271 ;;  sensor          2    6[BANK0 ] int 
  2272 ;; Return value:  Size  Location     Type
  2273 ;;                  2    2[BANK0 ] int 
  2274 ;; Registers used:
  2275 ;;		wreg, status,2, status,0, btemp+1, pclath, cstack
  2276 ;; Tracked objects:
  2277 ;;		On entry : 0/0
  2278 ;;		On exit  : 0/0
  2279 ;;		Unchanged: 0/0
  2280 ;; Data sizes:     COMMON   BANK0   BANK1   BANK3   BANK2
  2281 ;;      Params:         0       2       0       0       0
  2282 ;;      Locals:         0       3       0       0       0
  2283 ;;      Temps:          0       2       0       0       0
  2284 ;;      Totals:         0       7       0       0       0
  2285 ;;Total ram usage:        7 bytes
  2286 ;; Hardware stack levels used:    1
  2287 ;; Hardware stack levels required when called:    3
  2288 ;; This function calls:
  2289 ;;		_ser_getch
  2290 ;;		_ser_putch
  2291 ;; This function is called by:
  2292 ;;		_main
  2293 ;; This function uses a non-reentrant model
  2294 ;;
  2295                           
  2296                           
  2297                           ;psect for function _getSensorData
  2298  07C0                     _getSensorData:	
  2299                           
  2300                           ;incstack = 0
  2301                           ; Regs used in _getSensorData: [wreg+status,2+status,0+btemp+1+pclath+cstack]
  2302                           ;getSensorData@packetID stored from wreg
  2303  07C0  1283               	bcf	3,5	;RP0=0, select bank0
  2304  07C1  1303               	bcf	3,6	;RP1=0, select bank0
  2305  07C2  00CF               	movwf	getSensorData@packetID
  2306                           
  2307                           ;ser.c: 63: ser_putch(142);
  2308  07C3  308E               	movlw	142
  2309  07C4  120A  158A  2655  120A  118A  	fcall	_ser_putch
  2310                           
  2311                           ;ser.c: 64: ser_putch(packetID);
  2312  07C9  1283               	bcf	3,5	;RP0=0, select bank0
  2313  07CA  1303               	bcf	3,6	;RP1=0, select bank0
  2314  07CB  084F               	movf	getSensorData@packetID,w
  2315  07CC  120A  158A  2655  120A  118A  	fcall	_ser_putch
  2316                           
  2317                           ;ser.c: 66: if (bytes == 2)
  2318  07D1  3002               	movlw	2
  2319  07D2  1283               	bcf	3,5	;RP0=0, select bank0
  2320  07D3  1303               	bcf	3,6	;RP1=0, select bank0
  2321  07D4  0649               	xorwf	getSensorData@bytes,w
  2322  07D5  1D03               	btfss	3,2
  2323  07D6  2FE2               	goto	l1953
  2324                           
  2325                           ;ser.c: 67: highByte = ser_getch();
  2326  07D7  120A  158A  264B  120A  118A  	fcall	_ser_getch
  2327  07DC  1283               	bcf	3,5	;RP0=0, select bank0
  2328  07DD  1303               	bcf	3,6	;RP1=0, select bank0
  2329  07DE  00CB               	movwf	??_getSensorData
  2330  07DF  084B               	movf	??_getSensorData,w
  2331  07E0  00C6               	movwf	_highByte
  2332  07E1  2FE3               	goto	l1955
  2333  07E2                     l1953:	
  2334                           
  2335                           ;ser.c: 68: else
  2336                           ;ser.c: 69: highByte = 0;
  2337  07E2  01C6               	clrf	_highByte
  2338  07E3                     l1955:	
  2339                           
  2340                           ;ser.c: 71: lowByte = ser_getch();
  2341  07E3  120A  158A  264B   	fcall	_ser_getch
  2342  07E6  1283               	bcf	3,5	;RP0=0, select bank0
  2343  07E7  1303               	bcf	3,6	;RP1=0, select bank0
  2344  07E8  00CB               	movwf	??_getSensorData
  2345  07E9  084B               	movf	??_getSensorData,w
  2346  07EA  00BF               	movwf	_lowByte
  2347                           
  2348                           ;ser.c: 73: signed int sensor = (256*highByte + lowByte);
  2349  07EB  0846               	movf	_highByte,w
  2350  07EC  00CB               	movwf	??_getSensorData
  2351  07ED  01CC               	clrf	??_getSensorData+1
  2352  07EE  084B               	movf	??_getSensorData,w
  2353  07EF  00CC               	movwf	??_getSensorData+1
  2354  07F0  01CB               	clrf	??_getSensorData
  2355  07F1  083F               	movf	_lowByte,w
  2356  07F2  074B               	addwf	??_getSensorData,w
  2357  07F3  00CD               	movwf	getSensorData@sensor
  2358  07F4  3000               	movlw	0
  2359  07F5  1803               	skipnc
  2360  07F6  3001               	movlw	1
  2361  07F7  074C               	addwf	??_getSensorData+1,w
  2362  07F8  00CE               	movwf	getSensorData@sensor+1
  2363                           
  2364                           ;ser.c: 75: return sensor;
  2365  07F9  084E               	movf	getSensorData@sensor+1,w
  2366  07FA  00CA               	movwf	?_getSensorData+1
  2367  07FB  084D               	movf	getSensorData@sensor,w
  2368  07FC  00C9               	movwf	?_getSensorData
  2369  07FD  0008               	return
  2370  07FE                     __end_of_getSensorData:	
  2371                           
  2372                           	psect	text9
  2373  0E4B                     __ptext9:	
  2374 ;; *************** function _ser_getch *****************
  2375 ;; Defined at:
  2376 ;;		line 35 in file "ser.c"
  2377 ;; Parameters:    Size  Location     Type
  2378 ;;		None
  2379 ;; Auto vars:     Size  Location     Type
  2380 ;;  rxbyte          1    1[BANK0 ] unsigned char 
  2381 ;; Return value:  Size  Location     Type
  2382 ;;                  1    wreg      unsigned char 
  2383 ;; Registers used:
  2384 ;;		wreg
  2385 ;; Tracked objects:
  2386 ;;		On entry : 0/0
  2387 ;;		On exit  : 0/0
  2388 ;;		Unchanged: 0/0
  2389 ;; Data sizes:     COMMON   BANK0   BANK1   BANK3   BANK2
  2390 ;;      Params:         0       0       0       0       0
  2391 ;;      Locals:         0       1       0       0       0
  2392 ;;      Temps:          0       1       0       0       0
  2393 ;;      Totals:         0       2       0       0       0
  2394 ;;Total ram usage:        2 bytes
  2395 ;; Hardware stack levels used:    1
  2396 ;; Hardware stack levels required when called:    2
  2397 ;; This function calls:
  2398 ;;		Nothing
  2399 ;; This function is called by:
  2400 ;;		_getSensorData
  2401 ;; This function uses a non-reentrant model
  2402 ;;
  2403                           
  2404                           
  2405                           ;psect for function _ser_getch
  2406  0E4B                     _ser_getch:	
  2407  0E4B                     l336:	
  2408                           ;ser.c: 36: while(!RCIF);
  2409                           
  2410                           ;incstack = 0
  2411                           ; Regs used in _ser_getch: [wreg]
  2412                           
  2413  0E4B  1283               	bcf	3,5	;RP0=0, select bank0
  2414  0E4C  1303               	bcf	3,6	;RP1=0, select bank0
  2415  0E4D  1E8C               	btfss	12,5	;volatile
  2416  0E4E  2E4B               	goto	l336
  2417                           
  2418                           ;ser.c: 37: unsigned char rxbyte = RCREG;
  2419  0E4F  081A               	movf	26,w	;volatile
  2420  0E50  00C7               	movwf	??_ser_getch
  2421  0E51  0847               	movf	??_ser_getch,w
  2422  0E52  00C8               	movwf	ser_getch@rxbyte
  2423                           
  2424                           ;ser.c: 38: return rxbyte;
  2425  0E53  0848               	movf	ser_getch@rxbyte,w
  2426  0E54  0008               	return
  2427  0E55                     __end_of_ser_getch:	
  2428                           
  2429                           	psect	text10
  2430  0F3F                     __ptext10:	
  2431 ;; *************** function _DriveDirect *****************
  2432 ;; Defined at:
  2433 ;;		line 53 in file "ser.c"
  2434 ;; Parameters:    Size  Location     Type
  2435 ;;  RightSpeedH     1    wreg     unsigned char 
  2436 ;;  RightSpeedL     1    1[BANK0 ] unsigned char 
  2437 ;;  LeftSpeedH      1    2[BANK0 ] unsigned char 
  2438 ;;  LeftSpeedL      1    3[BANK0 ] unsigned char 
  2439 ;; Auto vars:     Size  Location     Type
  2440 ;;  RightSpeedH     1    4[BANK0 ] unsigned char 
  2441 ;; Return value:  Size  Location     Type
  2442 ;;                  1    wreg      void 
  2443 ;; Registers used:
  2444 ;;		wreg, status,2, status,0, pclath, cstack
  2445 ;; Tracked objects:
  2446 ;;		On entry : 0/0
  2447 ;;		On exit  : 0/0
  2448 ;;		Unchanged: 0/0
  2449 ;; Data sizes:     COMMON   BANK0   BANK1   BANK3   BANK2
  2450 ;;      Params:         0       3       0       0       0
  2451 ;;      Locals:         0       1       0       0       0
  2452 ;;      Temps:          0       0       0       0       0
  2453 ;;      Totals:         0       4       0       0       0
  2454 ;;Total ram usage:        4 bytes
  2455 ;; Hardware stack levels used:    1
  2456 ;; Hardware stack levels required when called:    3
  2457 ;; This function calls:
  2458 ;;		_ser_putch
  2459 ;; This function is called by:
  2460 ;;		_main
  2461 ;; This function uses a non-reentrant model
  2462 ;;
  2463                           
  2464                           
  2465                           ;psect for function _DriveDirect
  2466  0F3F                     _DriveDirect:	
  2467                           
  2468                           ;incstack = 0
  2469                           ; Regs used in _DriveDirect: [wreg+status,2+status,0+pclath+cstack]
  2470                           ;DriveDirect@RightSpeedH stored from wreg
  2471  0F3F  1283               	bcf	3,5	;RP0=0, select bank0
  2472  0F40  1303               	bcf	3,6	;RP1=0, select bank0
  2473  0F41  00CB               	movwf	DriveDirect@RightSpeedH
  2474                           
  2475                           ;ser.c: 54: ser_putch(145);
  2476  0F42  3091               	movlw	145
  2477  0F43  120A  158A  2655  120A  158A  	fcall	_ser_putch
  2478                           
  2479                           ;ser.c: 55: ser_putch(RightSpeedH);
  2480  0F48  1283               	bcf	3,5	;RP0=0, select bank0
  2481  0F49  1303               	bcf	3,6	;RP1=0, select bank0
  2482  0F4A  084B               	movf	DriveDirect@RightSpeedH,w
  2483  0F4B  120A  158A  2655  120A  158A  	fcall	_ser_putch
  2484                           
  2485                           ;ser.c: 56: ser_putch(RightSpeedL);
  2486  0F50  1283               	bcf	3,5	;RP0=0, select bank0
  2487  0F51  1303               	bcf	3,6	;RP1=0, select bank0
  2488  0F52  0848               	movf	DriveDirect@RightSpeedL,w
  2489  0F53  120A  158A  2655  120A  158A  	fcall	_ser_putch
  2490                           
  2491                           ;ser.c: 57: ser_putch(LeftSpeedH);
  2492  0F58  1283               	bcf	3,5	;RP0=0, select bank0
  2493  0F59  1303               	bcf	3,6	;RP1=0, select bank0
  2494  0F5A  0849               	movf	DriveDirect@LeftSpeedH,w
  2495  0F5B  120A  158A  2655  120A  158A  	fcall	_ser_putch
  2496                           
  2497                           ;ser.c: 58: ser_putch(LeftSpeedL);
  2498  0F60  1283               	bcf	3,5	;RP0=0, select bank0
  2499  0F61  1303               	bcf	3,6	;RP1=0, select bank0
  2500  0F62  084A               	movf	DriveDirect@LeftSpeedL,w
  2501  0F63  120A  158A  2655   	fcall	_ser_putch
  2502  0F66  0008               	return
  2503  0F67                     __end_of_DriveDirect:	
  2504                           
  2505                           	psect	text11
  2506  0F17                     __ptext11:	
  2507 ;; *************** function _Drive *****************
  2508 ;; Defined at:
  2509 ;;		line 45 in file "ser.c"
  2510 ;; Parameters:    Size  Location     Type
  2511 ;;  speedH          1    wreg     unsigned char 
  2512 ;;  speedL          1    1[BANK0 ] unsigned char 
  2513 ;;  radH            1    2[BANK0 ] unsigned char 
  2514 ;;  radL            1    3[BANK0 ] unsigned char 
  2515 ;; Auto vars:     Size  Location     Type
  2516 ;;  speedH          1    4[BANK0 ] unsigned char 
  2517 ;; Return value:  Size  Location     Type
  2518 ;;                  1    wreg      void 
  2519 ;; Registers used:
  2520 ;;		wreg, status,2, status,0, pclath, cstack
  2521 ;; Tracked objects:
  2522 ;;		On entry : 0/0
  2523 ;;		On exit  : 0/0
  2524 ;;		Unchanged: 0/0
  2525 ;; Data sizes:     COMMON   BANK0   BANK1   BANK3   BANK2
  2526 ;;      Params:         0       3       0       0       0
  2527 ;;      Locals:         0       1       0       0       0
  2528 ;;      Temps:          0       0       0       0       0
  2529 ;;      Totals:         0       4       0       0       0
  2530 ;;Total ram usage:        4 bytes
  2531 ;; Hardware stack levels used:    1
  2532 ;; Hardware stack levels required when called:    3
  2533 ;; This function calls:
  2534 ;;		_ser_putch
  2535 ;; This function is called by:
  2536 ;;		_main
  2537 ;; This function uses a non-reentrant model
  2538 ;;
  2539                           
  2540                           
  2541                           ;psect for function _Drive
  2542  0F17                     _Drive:	
  2543                           
  2544                           ;incstack = 0
  2545                           ; Regs used in _Drive: [wreg+status,2+status,0+pclath+cstack]
  2546                           ;Drive@speedH stored from wreg
  2547  0F17  1283               	bcf	3,5	;RP0=0, select bank0
  2548  0F18  1303               	bcf	3,6	;RP1=0, select bank0
  2549  0F19  00CB               	movwf	Drive@speedH
  2550                           
  2551                           ;ser.c: 46: ser_putch(137);
  2552  0F1A  3089               	movlw	137
  2553  0F1B  120A  158A  2655  120A  158A  	fcall	_ser_putch
  2554                           
  2555                           ;ser.c: 47: ser_putch(speedH);
  2556  0F20  1283               	bcf	3,5	;RP0=0, select bank0
  2557  0F21  1303               	bcf	3,6	;RP1=0, select bank0
  2558  0F22  084B               	movf	Drive@speedH,w
  2559  0F23  120A  158A  2655  120A  158A  	fcall	_ser_putch
  2560                           
  2561                           ;ser.c: 48: ser_putch(speedL);
  2562  0F28  1283               	bcf	3,5	;RP0=0, select bank0
  2563  0F29  1303               	bcf	3,6	;RP1=0, select bank0
  2564  0F2A  0848               	movf	Drive@speedL,w
  2565  0F2B  120A  158A  2655  120A  158A  	fcall	_ser_putch
  2566                           
  2567                           ;ser.c: 49: ser_putch(radH);
  2568  0F30  1283               	bcf	3,5	;RP0=0, select bank0
  2569  0F31  1303               	bcf	3,6	;RP1=0, select bank0
  2570  0F32  0849               	movf	Drive@radH,w
  2571  0F33  120A  158A  2655  120A  158A  	fcall	_ser_putch
  2572                           
  2573                           ;ser.c: 50: ser_putch(radL);
  2574  0F38  1283               	bcf	3,5	;RP0=0, select bank0
  2575  0F39  1303               	bcf	3,6	;RP1=0, select bank0
  2576  0F3A  084A               	movf	Drive@radL,w
  2577  0F3B  120A  158A  2655   	fcall	_ser_putch
  2578  0F3E  0008               	return
  2579  0F3F                     __end_of_Drive:	
  2580                           
  2581                           	psect	text12
  2582  0E55                     __ptext12:	
  2583 ;; *************** function _ser_putch *****************
  2584 ;; Defined at:
  2585 ;;		line 30 in file "ser.c"
  2586 ;; Parameters:    Size  Location     Type
  2587 ;;  c               1    wreg     unsigned char 
  2588 ;; Auto vars:     Size  Location     Type
  2589 ;;  c               1    0[BANK0 ] unsigned char 
  2590 ;; Return value:  Size  Location     Type
  2591 ;;                  1    wreg      void 
  2592 ;; Registers used:
  2593 ;;		wreg
  2594 ;; Tracked objects:
  2595 ;;		On entry : 0/0
  2596 ;;		On exit  : 0/0
  2597 ;;		Unchanged: 0/0
  2598 ;; Data sizes:     COMMON   BANK0   BANK1   BANK3   BANK2
  2599 ;;      Params:         0       0       0       0       0
  2600 ;;      Locals:         0       1       0       0       0
  2601 ;;      Temps:          0       0       0       0       0
  2602 ;;      Totals:         0       1       0       0       0
  2603 ;;Total ram usage:        1 bytes
  2604 ;; Hardware stack levels used:    1
  2605 ;; Hardware stack levels required when called:    2
  2606 ;; This function calls:
  2607 ;;		Nothing
  2608 ;; This function is called by:
  2609 ;;		_main
  2610 ;;		_Drive
  2611 ;;		_DriveDirect
  2612 ;;		_getSensorData
  2613 ;; This function uses a non-reentrant model
  2614 ;;
  2615                           
  2616                           
  2617                           ;psect for function _ser_putch
  2618  0E55                     _ser_putch:	
  2619                           
  2620                           ;incstack = 0
  2621                           ; Regs used in _ser_putch: [wreg]
  2622                           ;ser_putch@c stored from wreg
  2623  0E55  1283               	bcf	3,5	;RP0=0, select bank0
  2624  0E56  1303               	bcf	3,6	;RP1=0, select bank0
  2625  0E57  00C7               	movwf	ser_putch@c
  2626  0E58                     l330:	
  2627                           ;ser.c: 31: while(!TRMT);
  2628                           
  2629  0E58  1683               	bsf	3,5	;RP0=1, select bank1
  2630  0E59  1303               	bcf	3,6	;RP1=0, select bank1
  2631  0E5A  1C98               	btfss	24,1	;volatile
  2632  0E5B  2E58               	goto	l330
  2633                           
  2634                           ;ser.c: 32: TXREG=c;
  2635  0E5C  1283               	bcf	3,5	;RP0=0, select bank0
  2636  0E5D  1303               	bcf	3,6	;RP1=0, select bank0
  2637  0E5E  0847               	movf	ser_putch@c,w
  2638  0E5F  0099               	movwf	25	;volatile
  2639  0E60  0008               	return
  2640  0E61                     __end_of_ser_putch:	
  2641                           
  2642                           	psect	text13
  2643  0ED4                     __ptext13:	
  2644 ;; *************** function _ADCMain *****************
  2645 ;; Defined at:
  2646 ;;		line 19 in file "ADC.c"
  2647 ;; Parameters:    Size  Location     Type
  2648 ;;		None
  2649 ;; Auto vars:     Size  Location     Type
  2650 ;;		None
  2651 ;; Return value:  Size  Location     Type
  2652 ;;                  1    wreg      void 
  2653 ;; Registers used:
  2654 ;;		wreg, fsr0l, fsr0h, status,2, status,0, pclath, cstack
  2655 ;; Tracked objects:
  2656 ;;		On entry : 0/0
  2657 ;;		On exit  : 0/0
  2658 ;;		Unchanged: 0/0
  2659 ;; Data sizes:     COMMON   BANK0   BANK1   BANK3   BANK2
  2660 ;;      Params:         0       0       0       0       0
  2661 ;;      Locals:         0       0       0       0       0
  2662 ;;      Temps:          0       0       0       0       0
  2663 ;;      Totals:         0       0       0       0       0
  2664 ;;Total ram usage:        0 bytes
  2665 ;; Hardware stack levels used:    1
  2666 ;; Hardware stack levels required when called:    4
  2667 ;; This function calls:
  2668 ;;		_adcConvertMM
  2669 ;;		_getADC
  2670 ;;		_lcdSetCursor
  2671 ;;		_lcdWriteToDigitBCD
  2672 ;; This function is called by:
  2673 ;;		_main
  2674 ;; This function uses a non-reentrant model
  2675 ;;
  2676                           
  2677                           
  2678                           ;psect for function _ADCMain
  2679  0ED4                     _ADCMain:	
  2680                           
  2681                           ;ADC.c: 21: getADC();
  2682                           
  2683                           ;incstack = 0
  2684                           ; Regs used in _ADCMain: [wreg-fsr0h+status,2+status,0+pclath+cstack]
  2685  0ED4  120A  118A  277B  120A  158A  	fcall	_getADC
  2686                           
  2687                           ;ADC.c: 22: lcdSetCursor(0b10000000);
  2688  0ED9  3080               	movlw	128
  2689  0EDA  120A  158A  2642  120A  158A  	fcall	_lcdSetCursor
  2690                           
  2691                           ;ADC.c: 23: lcdWriteToDigitBCD(adcRAW);
  2692  0EDF  1283               	bcf	3,5	;RP0=0, select bank0
  2693  0EE0  1303               	bcf	3,6	;RP1=0, select bank0
  2694  0EE1  0823               	movf	_adcRAW+1,w	;volatile
  2695  0EE2  00CB               	movwf	lcdWriteToDigitBCD@data+1
  2696  0EE3  0822               	movf	_adcRAW,w	;volatile
  2697  0EE4  00CA               	movwf	lcdWriteToDigitBCD@data
  2698  0EE5  120A  118A  257C  120A  158A  	fcall	_lcdWriteToDigitBCD
  2699                           
  2700                           ;ADC.c: 25: adcConvertMM(adcRAW);
  2701  0EEA  1283               	bcf	3,5	;RP0=0, select bank0
  2702  0EEB  1303               	bcf	3,6	;RP1=0, select bank0
  2703  0EEC  0823               	movf	_adcRAW+1,w	;volatile
  2704  0EED  00DD               	movwf	adcConvertMM@adcRAW+1
  2705  0EEE  0822               	movf	_adcRAW,w	;volatile
  2706  0EEF  00DC               	movwf	adcConvertMM@adcRAW
  2707  0EF0  120A  118A  202F   	fcall	_adcConvertMM
  2708  0EF3  0008               	return
  2709  0EF4                     __end_of_ADCMain:	
  2710                           
  2711                           	psect	text14
  2712  057C                     __ptext14:	
  2713 ;; *************** function _lcdWriteToDigitBCD *****************
  2714 ;; Defined at:
  2715 ;;		line 42 in file "LCD.c"
  2716 ;; Parameters:    Size  Location     Type
  2717 ;;  data            2    3[BANK0 ] unsigned int 
  2718 ;; Auto vars:     Size  Location     Type
  2719 ;;  OnesDigit       2   13[BANK0 ] unsigned int 
  2720 ;;  TenThouDigit    2   11[BANK0 ] unsigned int 
  2721 ;;  ThouDigit       2    9[BANK0 ] unsigned int 
  2722 ;;  HunsDigit       2    7[BANK0 ] unsigned int 
  2723 ;;  TensDigit       2    5[BANK0 ] unsigned int 
  2724 ;; Return value:  Size  Location     Type
  2725 ;;                  1    wreg      void 
  2726 ;; Registers used:
  2727 ;;		wreg, status,2, status,0, pclath, cstack
  2728 ;; Tracked objects:
  2729 ;;		On entry : 0/0
  2730 ;;		On exit  : 0/0
  2731 ;;		Unchanged: 0/0
  2732 ;; Data sizes:     COMMON   BANK0   BANK1   BANK3   BANK2
  2733 ;;      Params:         0       2       0       0       0
  2734 ;;      Locals:         0      10       0       0       0
  2735 ;;      Temps:          0       0       0       0       0
  2736 ;;      Totals:         0      12       0       0       0
  2737 ;;Total ram usage:       12 bytes
  2738 ;; Hardware stack levels used:    1
  2739 ;; Hardware stack levels required when called:    3
  2740 ;; This function calls:
  2741 ;;		_lcdWriteData
  2742 ;; This function is called by:
  2743 ;;		_main
  2744 ;;		_ADCMain
  2745 ;; This function uses a non-reentrant model
  2746 ;;
  2747                           
  2748                           
  2749                           ;psect for function _lcdWriteToDigitBCD
  2750  057C                     _lcdWriteToDigitBCD:	
  2751                           
  2752                           ;LCD.c: 43: unsigned int OnesDigit, TensDigit, HunsDigit, ThouDigit, TenThouDigit;
  2753                           ;LCD.c: 46: OnesDigit = data;
  2754                           
  2755                           ;incstack = 0
  2756                           ; Regs used in _lcdWriteToDigitBCD: [wreg+status,2+status,0+pclath+cstack]
  2757  057C  1283               	bcf	3,5	;RP0=0, select bank0
  2758  057D  1303               	bcf	3,6	;RP1=0, select bank0
  2759  057E  084B               	movf	lcdWriteToDigitBCD@data+1,w
  2760  057F  00D5               	movwf	lcdWriteToDigitBCD@OnesDigit+1
  2761  0580  084A               	movf	lcdWriteToDigitBCD@data,w
  2762  0581  00D4               	movwf	lcdWriteToDigitBCD@OnesDigit
  2763                           
  2764                           ;LCD.c: 47: TensDigit = 0;
  2765  0582  01CC               	clrf	lcdWriteToDigitBCD@TensDigit
  2766  0583  01CD               	clrf	lcdWriteToDigitBCD@TensDigit+1
  2767                           
  2768                           ;LCD.c: 48: HunsDigit = 0;
  2769  0584  01CE               	clrf	lcdWriteToDigitBCD@HunsDigit
  2770  0585  01CF               	clrf	lcdWriteToDigitBCD@HunsDigit+1
  2771                           
  2772                           ;LCD.c: 49: ThouDigit = 0;
  2773  0586  01D0               	clrf	lcdWriteToDigitBCD@ThouDigit
  2774  0587  01D1               	clrf	lcdWriteToDigitBCD@ThouDigit+1
  2775                           
  2776                           ;LCD.c: 50: TenThouDigit = 0;
  2777  0588  01D2               	clrf	lcdWriteToDigitBCD@TenThouDigit
  2778  0589  01D3               	clrf	lcdWriteToDigitBCD@TenThouDigit+1
  2779  058A                     l1659:	
  2780                           ;LCD.c: 53: while (OnesDigit >= 10000){
  2781                           
  2782  058A  3027               	movlw	39
  2783  058B  0255               	subwf	lcdWriteToDigitBCD@OnesDigit+1,w
  2784  058C  3010               	movlw	16
  2785  058D  1903               	skipnz
  2786  058E  0254               	subwf	lcdWriteToDigitBCD@OnesDigit,w
  2787  058F  1C03               	btfss	3,0
  2788  0590  2DAE               	goto	l1665
  2789                           
  2790                           ;LCD.c: 54: OnesDigit = OnesDigit - 10000;
  2791  0591  0854               	movf	lcdWriteToDigitBCD@OnesDigit,w
  2792  0592  3EF0               	addlw	240
  2793  0593  00D4               	movwf	lcdWriteToDigitBCD@OnesDigit
  2794  0594  0855               	movf	lcdWriteToDigitBCD@OnesDigit+1,w
  2795  0595  1803               	skipnc
  2796  0596  3E01               	addlw	1
  2797  0597  3ED8               	addlw	216
  2798  0598  00D5               	movwf	lcdWriteToDigitBCD@OnesDigit+1
  2799                           
  2800                           ;LCD.c: 55: TenThouDigit++;
  2801  0599  3001               	movlw	1
  2802  059A  07D2               	addwf	lcdWriteToDigitBCD@TenThouDigit,f
  2803  059B  1803               	skipnc
  2804  059C  0AD3               	incf	lcdWriteToDigitBCD@TenThouDigit+1,f
  2805  059D  3000               	movlw	0
  2806  059E  07D3               	addwf	lcdWriteToDigitBCD@TenThouDigit+1,f
  2807  059F  2D8A               	goto	l1659
  2808  05A0                     l1661:	
  2809                           ;LCD.c: 56: }
  2810                           ;LCD.c: 58: while (OnesDigit >= 1000){
  2811                           
  2812                           
  2813                           ;LCD.c: 59: OnesDigit = OnesDigit - 1000;
  2814  05A0  0854               	movf	lcdWriteToDigitBCD@OnesDigit,w
  2815  05A1  3E18               	addlw	24
  2816  05A2  00D4               	movwf	lcdWriteToDigitBCD@OnesDigit
  2817  05A3  0855               	movf	lcdWriteToDigitBCD@OnesDigit+1,w
  2818  05A4  1803               	skipnc
  2819  05A5  3E01               	addlw	1
  2820  05A6  3EFC               	addlw	252
  2821  05A7  00D5               	movwf	lcdWriteToDigitBCD@OnesDigit+1
  2822                           
  2823                           ;LCD.c: 60: ThouDigit++;
  2824  05A8  3001               	movlw	1
  2825  05A9  07D0               	addwf	lcdWriteToDigitBCD@ThouDigit,f
  2826  05AA  1803               	skipnc
  2827  05AB  0AD1               	incf	lcdWriteToDigitBCD@ThouDigit+1,f
  2828  05AC  3000               	movlw	0
  2829  05AD  07D1               	addwf	lcdWriteToDigitBCD@ThouDigit+1,f
  2830  05AE                     l1665:	
  2831  05AE  3003               	movlw	3
  2832  05AF  0255               	subwf	lcdWriteToDigitBCD@OnesDigit+1,w
  2833  05B0  30E8               	movlw	232
  2834  05B1  1903               	skipnz
  2835  05B2  0254               	subwf	lcdWriteToDigitBCD@OnesDigit,w
  2836  05B3  1C03               	btfss	3,0
  2837  05B4  2DC4               	goto	l1671
  2838  05B5  2DA0               	goto	l1661
  2839  05B6                     l1667:	
  2840                           ;LCD.c: 61: }
  2841                           ;LCD.c: 63: while (OnesDigit >= 100){
  2842                           
  2843                           
  2844                           ;LCD.c: 64: OnesDigit = OnesDigit - 100;
  2845  05B6  0854               	movf	lcdWriteToDigitBCD@OnesDigit,w
  2846  05B7  3E9C               	addlw	156
  2847  05B8  00D4               	movwf	lcdWriteToDigitBCD@OnesDigit
  2848  05B9  0855               	movf	lcdWriteToDigitBCD@OnesDigit+1,w
  2849  05BA  1803               	skipnc
  2850  05BB  3E01               	addlw	1
  2851  05BC  3EFF               	addlw	255
  2852  05BD  00D5               	movwf	lcdWriteToDigitBCD@OnesDigit+1
  2853                           
  2854                           ;LCD.c: 65: HunsDigit++;
  2855  05BE  3001               	movlw	1
  2856  05BF  07CE               	addwf	lcdWriteToDigitBCD@HunsDigit,f
  2857  05C0  1803               	skipnc
  2858  05C1  0ACF               	incf	lcdWriteToDigitBCD@HunsDigit+1,f
  2859  05C2  3000               	movlw	0
  2860  05C3  07CF               	addwf	lcdWriteToDigitBCD@HunsDigit+1,f
  2861  05C4                     l1671:	
  2862  05C4  3000               	movlw	0
  2863  05C5  0255               	subwf	lcdWriteToDigitBCD@OnesDigit+1,w
  2864  05C6  3064               	movlw	100
  2865  05C7  1903               	skipnz
  2866  05C8  0254               	subwf	lcdWriteToDigitBCD@OnesDigit,w
  2867  05C9  1C03               	btfss	3,0
  2868  05CA  2DDA               	goto	l1677
  2869  05CB  2DB6               	goto	l1667
  2870  05CC                     l1673:	
  2871                           ;LCD.c: 66: }
  2872                           ;LCD.c: 68: while (OnesDigit >= 10){
  2873                           
  2874                           
  2875                           ;LCD.c: 69: OnesDigit = OnesDigit - 10;
  2876  05CC  0854               	movf	lcdWriteToDigitBCD@OnesDigit,w
  2877  05CD  3EF6               	addlw	246
  2878  05CE  00D4               	movwf	lcdWriteToDigitBCD@OnesDigit
  2879  05CF  0855               	movf	lcdWriteToDigitBCD@OnesDigit+1,w
  2880  05D0  1803               	skipnc
  2881  05D1  3E01               	addlw	1
  2882  05D2  3EFF               	addlw	255
  2883  05D3  00D5               	movwf	lcdWriteToDigitBCD@OnesDigit+1
  2884                           
  2885                           ;LCD.c: 70: TensDigit++;
  2886  05D4  3001               	movlw	1
  2887  05D5  07CC               	addwf	lcdWriteToDigitBCD@TensDigit,f
  2888  05D6  1803               	skipnc
  2889  05D7  0ACD               	incf	lcdWriteToDigitBCD@TensDigit+1,f
  2890  05D8  3000               	movlw	0
  2891  05D9  07CD               	addwf	lcdWriteToDigitBCD@TensDigit+1,f
  2892  05DA                     l1677:	
  2893  05DA  3000               	movlw	0
  2894  05DB  0255               	subwf	lcdWriteToDigitBCD@OnesDigit+1,w
  2895  05DC  300A               	movlw	10
  2896  05DD  1903               	skipnz
  2897  05DE  0254               	subwf	lcdWriteToDigitBCD@OnesDigit,w
  2898  05DF  1803               	skipnc
  2899  05E0  2DCC               	goto	l1673
  2900                           
  2901                           ;LCD.c: 71: }
  2902                           ;LCD.c: 73: if (TenThouDigit > 0)
  2903  05E1  0852               	movf	lcdWriteToDigitBCD@TenThouDigit,w
  2904  05E2  0453               	iorwf	lcdWriteToDigitBCD@TenThouDigit+1,w
  2905  05E3  1903               	btfsc	3,2
  2906  05E4  2DEC               	goto	l1683
  2907                           
  2908                           ;LCD.c: 74: lcdWriteData((unsigned int)TenThouDigit + 48);
  2909  05E5  0852               	movf	lcdWriteToDigitBCD@TenThouDigit,w
  2910  05E6  3E30               	addlw	48
  2911  05E7  120A  158A  267F  120A  118A  	fcall	_lcdWriteData
  2912  05EC                     l1683:	
  2913                           
  2914                           ;LCD.c: 76: if (ThouDigit > 0)
  2915  05EC  1283               	bcf	3,5	;RP0=0, select bank0
  2916  05ED  1303               	bcf	3,6	;RP1=0, select bank0
  2917  05EE  0850               	movf	lcdWriteToDigitBCD@ThouDigit,w
  2918  05EF  0451               	iorwf	lcdWriteToDigitBCD@ThouDigit+1,w
  2919  05F0  1903               	btfsc	3,2
  2920  05F1  2DF9               	goto	l217
  2921                           
  2922                           ;LCD.c: 77: lcdWriteData((unsigned int)ThouDigit + 48);
  2923  05F2  0850               	movf	lcdWriteToDigitBCD@ThouDigit,w
  2924  05F3  3E30               	addlw	48
  2925  05F4  120A  158A  267F  120A  118A  	fcall	_lcdWriteData
  2926  05F9                     l217:	
  2927                           
  2928                           ;LCD.c: 79: lcdWriteData((unsigned int)HunsDigit + 48);
  2929  05F9  1283               	bcf	3,5	;RP0=0, select bank0
  2930  05FA  1303               	bcf	3,6	;RP1=0, select bank0
  2931  05FB  084E               	movf	lcdWriteToDigitBCD@HunsDigit,w
  2932  05FC  3E30               	addlw	48
  2933  05FD  120A  158A  267F  120A  118A  	fcall	_lcdWriteData
  2934                           
  2935                           ;LCD.c: 80: lcdWriteData((unsigned int)TensDigit + 48);
  2936  0602  1283               	bcf	3,5	;RP0=0, select bank0
  2937  0603  1303               	bcf	3,6	;RP1=0, select bank0
  2938  0604  084C               	movf	lcdWriteToDigitBCD@TensDigit,w
  2939  0605  3E30               	addlw	48
  2940  0606  120A  158A  267F  120A  118A  	fcall	_lcdWriteData
  2941                           
  2942                           ;LCD.c: 81: lcdWriteData((unsigned int)OnesDigit + 48);
  2943  060B  1283               	bcf	3,5	;RP0=0, select bank0
  2944  060C  1303               	bcf	3,6	;RP1=0, select bank0
  2945  060D  0854               	movf	lcdWriteToDigitBCD@OnesDigit,w
  2946  060E  3E30               	addlw	48
  2947  060F  120A  158A  267F   	fcall	_lcdWriteData
  2948  0612  0008               	return
  2949  0613                     __end_of_lcdWriteToDigitBCD:	
  2950                           
  2951                           	psect	text15
  2952  0E7F                     __ptext15:	
  2953 ;; *************** function _lcdWriteData *****************
  2954 ;; Defined at:
  2955 ;;		line 20 in file "LCD.c"
  2956 ;; Parameters:    Size  Location     Type
  2957 ;;  databyte        1    wreg     unsigned char 
  2958 ;; Auto vars:     Size  Location     Type
  2959 ;;  databyte        1    2[BANK0 ] unsigned char 
  2960 ;; Return value:  Size  Location     Type
  2961 ;;                  1    wreg      void 
  2962 ;; Registers used:
  2963 ;;		wreg
  2964 ;; Tracked objects:
  2965 ;;		On entry : 0/0
  2966 ;;		On exit  : 0/0
  2967 ;;		Unchanged: 0/0
  2968 ;; Data sizes:     COMMON   BANK0   BANK1   BANK3   BANK2
  2969 ;;      Params:         0       0       0       0       0
  2970 ;;      Locals:         0       1       0       0       0
  2971 ;;      Temps:          0       2       0       0       0
  2972 ;;      Totals:         0       3       0       0       0
  2973 ;;Total ram usage:        3 bytes
  2974 ;; Hardware stack levels used:    1
  2975 ;; Hardware stack levels required when called:    2
  2976 ;; This function calls:
  2977 ;;		Nothing
  2978 ;; This function is called by:
  2979 ;;		_lcdWriteToDigitBCD
  2980 ;;		_lcdWriteString
  2981 ;; This function uses a non-reentrant model
  2982 ;;
  2983                           
  2984                           
  2985                           ;psect for function _lcdWriteData
  2986  0E7F                     _lcdWriteData:	
  2987                           
  2988                           ;incstack = 0
  2989                           ; Regs used in _lcdWriteData: [wreg]
  2990                           ;lcdWriteData@databyte stored from wreg
  2991  0E7F  1283               	bcf	3,5	;RP0=0, select bank0
  2992  0E80  1303               	bcf	3,6	;RP1=0, select bank0
  2993  0E81  00C9               	movwf	lcdWriteData@databyte
  2994                           
  2995                           ;LCD.c: 21: RE2 = 0;
  2996  0E82  1109               	bcf	9,2	;volatile
  2997                           
  2998                           ;LCD.c: 22: RE1 = 0;
  2999  0E83  1089               	bcf	9,1	;volatile
  3000                           
  3001                           ;LCD.c: 23: RE0 = 1;
  3002  0E84  1409               	bsf	9,0	;volatile
  3003                           
  3004                           ;LCD.c: 24: PORTD = databyte;
  3005  0E85  0849               	movf	lcdWriteData@databyte,w
  3006  0E86  0088               	movwf	8	;volatile
  3007                           
  3008                           ;LCD.c: 25: RE2 = 1;
  3009  0E87  1509               	bsf	9,2	;volatile
  3010                           
  3011                           ;LCD.c: 26: RE2 = 0;
  3012  0E88  1109               	bcf	9,2	;volatile
  3013                           
  3014                           ;LCD.c: 27: _delay((unsigned long)((1)*(20000000/4000.0)));
  3015  0E89  3007               	movlw	7
  3016  0E8A  00C8               	movwf	??_lcdWriteData+1
  3017  0E8B  307D               	movlw	125
  3018  0E8C  00C7               	movwf	??_lcdWriteData
  3019  0E8D                     u1807:	
  3020  0E8D  0BC7               	decfsz	??_lcdWriteData,f
  3021  0E8E  2E8D               	goto	u1807
  3022  0E8F  0BC8               	decfsz	??_lcdWriteData+1,f
  3023  0E90  2E8D               	goto	u1807
  3024  0E91  0008               	return
  3025  0E92                     __end_of_lcdWriteData:	
  3026                           
  3027                           	psect	text16
  3028  0E42                     __ptext16:	
  3029 ;; *************** function _lcdSetCursor *****************
  3030 ;; Defined at:
  3031 ;;		line 31 in file "LCD.c"
  3032 ;; Parameters:    Size  Location     Type
  3033 ;;  address         1    wreg     unsigned char 
  3034 ;; Auto vars:     Size  Location     Type
  3035 ;;  address         1    3[BANK0 ] unsigned char 
  3036 ;; Return value:  Size  Location     Type
  3037 ;;                  1    wreg      void 
  3038 ;; Registers used:
  3039 ;;		wreg, status,2, status,0, pclath, cstack
  3040 ;; Tracked objects:
  3041 ;;		On entry : 0/0
  3042 ;;		On exit  : 0/0
  3043 ;;		Unchanged: 0/0
  3044 ;; Data sizes:     COMMON   BANK0   BANK1   BANK3   BANK2
  3045 ;;      Params:         0       0       0       0       0
  3046 ;;      Locals:         0       1       0       0       0
  3047 ;;      Temps:          0       0       0       0       0
  3048 ;;      Totals:         0       1       0       0       0
  3049 ;;Total ram usage:        1 bytes
  3050 ;; Hardware stack levels used:    1
  3051 ;; Hardware stack levels required when called:    3
  3052 ;; This function calls:
  3053 ;;		_lcdWriteControl
  3054 ;; This function is called by:
  3055 ;;		_main
  3056 ;;		_ADCMain
  3057 ;; This function uses a non-reentrant model
  3058 ;;
  3059                           
  3060                           
  3061                           ;psect for function _lcdSetCursor
  3062  0E42                     _lcdSetCursor:	
  3063                           
  3064                           ;incstack = 0
  3065                           ; Regs used in _lcdSetCursor: [wreg+status,2+status,0+pclath+cstack]
  3066                           ;lcdSetCursor@address stored from wreg
  3067  0E42  1283               	bcf	3,5	;RP0=0, select bank0
  3068  0E43  1303               	bcf	3,6	;RP1=0, select bank0
  3069  0E44  00CA               	movwf	lcdSetCursor@address
  3070                           
  3071                           ;LCD.c: 32: address |= 0b10000000;
  3072  0E45  17CA               	bsf	lcdSetCursor@address,7
  3073                           
  3074                           ;LCD.c: 33: lcdWriteControl(address);
  3075  0E46  084A               	movf	lcdSetCursor@address,w
  3076  0E47  120A  158A  2692   	fcall	_lcdWriteControl
  3077  0E4A  0008               	return
  3078  0E4B                     __end_of_lcdSetCursor:	
  3079                           
  3080                           	psect	text17
  3081  0E92                     __ptext17:	
  3082 ;; *************** function _lcdWriteControl *****************
  3083 ;; Defined at:
  3084 ;;		line 9 in file "LCD.c"
  3085 ;; Parameters:    Size  Location     Type
  3086 ;;  databyte        1    wreg     unsigned char 
  3087 ;; Auto vars:     Size  Location     Type
  3088 ;;  databyte        1    2[BANK0 ] unsigned char 
  3089 ;; Return value:  Size  Location     Type
  3090 ;;                  1    wreg      void 
  3091 ;; Registers used:
  3092 ;;		wreg
  3093 ;; Tracked objects:
  3094 ;;		On entry : 0/0
  3095 ;;		On exit  : 0/0
  3096 ;;		Unchanged: 0/0
  3097 ;; Data sizes:     COMMON   BANK0   BANK1   BANK3   BANK2
  3098 ;;      Params:         0       0       0       0       0
  3099 ;;      Locals:         0       1       0       0       0
  3100 ;;      Temps:          0       2       0       0       0
  3101 ;;      Totals:         0       3       0       0       0
  3102 ;;Total ram usage:        3 bytes
  3103 ;; Hardware stack levels used:    1
  3104 ;; Hardware stack levels required when called:    2
  3105 ;; This function calls:
  3106 ;;		Nothing
  3107 ;; This function is called by:
  3108 ;;		_lcdSetCursor
  3109 ;;		_setupLCD
  3110 ;; This function uses a non-reentrant model
  3111 ;;
  3112                           
  3113                           
  3114                           ;psect for function _lcdWriteControl
  3115  0E92                     _lcdWriteControl:	
  3116                           
  3117                           ;incstack = 0
  3118                           ; Regs used in _lcdWriteControl: [wreg]
  3119                           ;lcdWriteControl@databyte stored from wreg
  3120  0E92  1283               	bcf	3,5	;RP0=0, select bank0
  3121  0E93  1303               	bcf	3,6	;RP1=0, select bank0
  3122  0E94  00C9               	movwf	lcdWriteControl@databyte
  3123                           
  3124                           ;LCD.c: 10: RE2 = 0;
  3125  0E95  1109               	bcf	9,2	;volatile
  3126                           
  3127                           ;LCD.c: 11: RE1 = 0;
  3128  0E96  1089               	bcf	9,1	;volatile
  3129                           
  3130                           ;LCD.c: 12: RE0 = 0;
  3131  0E97  1009               	bcf	9,0	;volatile
  3132                           
  3133                           ;LCD.c: 13: PORTD = databyte;
  3134  0E98  0849               	movf	lcdWriteControl@databyte,w
  3135  0E99  0088               	movwf	8	;volatile
  3136                           
  3137                           ;LCD.c: 14: RE2 = 1;
  3138  0E9A  1509               	bsf	9,2	;volatile
  3139                           
  3140                           ;LCD.c: 15: RE2 = 0;
  3141  0E9B  1109               	bcf	9,2	;volatile
  3142                           
  3143                           ;LCD.c: 16: _delay((unsigned long)((2)*(20000000/4000.0)));
  3144  0E9C  300D               	movlw	13
  3145  0E9D  00C8               	movwf	??_lcdWriteControl+1
  3146  0E9E  30FB               	movlw	251
  3147  0E9F  00C7               	movwf	??_lcdWriteControl
  3148  0EA0                     u1817:	
  3149  0EA0  0BC7               	decfsz	??_lcdWriteControl,f
  3150  0EA1  2EA0               	goto	u1817
  3151  0EA2  0BC8               	decfsz	??_lcdWriteControl+1,f
  3152  0EA3  2EA0               	goto	u1817
  3153  0EA4  2EA5               	nop2
  3154  0EA5  0008               	return
  3155  0EA6                     __end_of_lcdWriteControl:	
  3156                           
  3157                           	psect	text18
  3158  077B                     __ptext18:	
  3159 ;; *************** function _getADC *****************
  3160 ;; Defined at:
  3161 ;;		line 29 in file "ADC.c"
  3162 ;; Parameters:    Size  Location     Type
  3163 ;;		None
  3164 ;; Auto vars:     Size  Location     Type
  3165 ;;		None
  3166 ;; Return value:  Size  Location     Type
  3167 ;;                  2  420[None  ] unsigned int 
  3168 ;; Registers used:
  3169 ;;		wreg, fsr0l, fsr0h, status,2, status,0
  3170 ;; Tracked objects:
  3171 ;;		On entry : 0/0
  3172 ;;		On exit  : 0/0
  3173 ;;		Unchanged: 0/0
  3174 ;; Data sizes:     COMMON   BANK0   BANK1   BANK3   BANK2
  3175 ;;      Params:         0       0       0       0       0
  3176 ;;      Locals:         0       0       0       0       0
  3177 ;;      Temps:          0       2       0       0       0
  3178 ;;      Totals:         0       2       0       0       0
  3179 ;;Total ram usage:        2 bytes
  3180 ;; Hardware stack levels used:    1
  3181 ;; Hardware stack levels required when called:    2
  3182 ;; This function calls:
  3183 ;;		Nothing
  3184 ;; This function is called by:
  3185 ;;		_ADCMain
  3186 ;; This function uses a non-reentrant model
  3187 ;;
  3188                           
  3189                           
  3190                           ;psect for function _getADC
  3191  077B                     _getADC:	
  3192                           
  3193                           ;ADC.c: 31: ADRESH = 0;
  3194                           
  3195                           ;incstack = 0
  3196                           ; Regs used in _getADC: [wreg-fsr0h+status,2+status,0]
  3197  077B  1283               	bcf	3,5	;RP0=0, select bank0
  3198  077C  1303               	bcf	3,6	;RP1=0, select bank0
  3199  077D  019E               	clrf	30	;volatile
  3200                           
  3201                           ;ADC.c: 32: ADRESL = 0;
  3202  077E  1683               	bsf	3,5	;RP0=1, select bank1
  3203  077F  1303               	bcf	3,6	;RP1=0, select bank1
  3204  0780  019E               	clrf	30	;volatile
  3205                           
  3206                           ;ADC.c: 34: GO = 1;
  3207  0781  1283               	bcf	3,5	;RP0=0, select bank0
  3208  0782  1303               	bcf	3,6	;RP1=0, select bank0
  3209  0783  151F               	bsf	31,2	;volatile
  3210  0784                     l467:	
  3211                           ;ADC.c: 35: while(GO) continue;
  3212                           
  3213  0784  191F               	btfsc	31,2	;volatile
  3214  0785  2F84               	goto	l467
  3215                           
  3216                           ;ADC.c: 39: adcRAW = (4*ADRESH);
  3217  0786  081E               	movf	30,w	;volatile
  3218  0787  00C7               	movwf	??_getADC
  3219  0788  01C8               	clrf	??_getADC+1
  3220  0789  1003               	clrc
  3221  078A  0DC7               	rlf	??_getADC,f
  3222  078B  0DC8               	rlf	??_getADC+1,f
  3223  078C  1003               	clrc
  3224  078D  0DC7               	rlf	??_getADC,f
  3225  078E  0DC8               	rlf	??_getADC+1,f
  3226  078F  0847               	movf	??_getADC,w
  3227  0790  00A2               	movwf	_adcRAW	;volatile
  3228  0791  0848               	movf	??_getADC+1,w
  3229  0792  00A3               	movwf	_adcRAW+1	;volatile
  3230                           
  3231                           ;ADC.c: 41: switch(ADRESL){
  3232  0793  2FB2               	goto	l1709
  3233  0794                     l1703:	
  3234                           ;ADC.c: 42: case 0b01000000: adcRAW = adcRAW + 1;
  3235                           
  3236  0794  1283               	bcf	3,5	;RP0=0, select bank0
  3237  0795  0822               	movf	_adcRAW,w	;volatile
  3238  0796  3E01               	addlw	1
  3239  0797  00A2               	movwf	_adcRAW	;volatile
  3240  0798  0823               	movf	_adcRAW+1,w	;volatile
  3241  0799  1803               	skipnc
  3242  079A  3E01               	addlw	1
  3243  079B  3E00               	addlw	0
  3244  079C  00A3               	movwf	_adcRAW+1	;volatile
  3245                           
  3246                           ;ADC.c: 43: break;
  3247  079D  0008               	return
  3248  079E                     l1705:	
  3249                           ;ADC.c: 44: case 0b10000000: adcRAW = adcRAW + 2;
  3250                           
  3251  079E  1283               	bcf	3,5	;RP0=0, select bank0
  3252  079F  0822               	movf	_adcRAW,w	;volatile
  3253  07A0  3E02               	addlw	2
  3254  07A1  00A2               	movwf	_adcRAW	;volatile
  3255  07A2  0823               	movf	_adcRAW+1,w	;volatile
  3256  07A3  1803               	skipnc
  3257  07A4  3E01               	addlw	1
  3258  07A5  3E00               	addlw	0
  3259  07A6  00A3               	movwf	_adcRAW+1	;volatile
  3260                           
  3261                           ;ADC.c: 45: break;
  3262  07A7  0008               	return
  3263  07A8                     l1707:	
  3264                           ;ADC.c: 46: case 0b11000000: adcRAW = adcRAW + 3;
  3265                           
  3266  07A8  1283               	bcf	3,5	;RP0=0, select bank0
  3267  07A9  0822               	movf	_adcRAW,w	;volatile
  3268  07AA  3E03               	addlw	3
  3269  07AB  00A2               	movwf	_adcRAW	;volatile
  3270  07AC  0823               	movf	_adcRAW+1,w	;volatile
  3271  07AD  1803               	skipnc
  3272  07AE  3E01               	addlw	1
  3273  07AF  3E00               	addlw	0
  3274  07B0  00A3               	movwf	_adcRAW+1	;volatile
  3275                           
  3276                           ;ADC.c: 49: }
  3277                           
  3278                           ;ADC.c: 48: default: adcRAW = adcRAW;
  3279                           
  3280                           ;ADC.c: 47: break;
  3281  07B1  0008               	return
  3282  07B2                     l1709:	
  3283  07B2  1683               	bsf	3,5	;RP0=1, select bank1
  3284  07B3  1303               	bcf	3,6	;RP1=0, select bank1
  3285  07B4  081E               	movf	30,w	;volatile
  3286                           
  3287                           ; Switch size 1, requested type "space"
  3288                           ; Number of cases is 3, Range of values is 64 to 192
  3289                           ; switch strategies available:
  3290                           ; Name         Instructions Cycles
  3291                           ; simple_byte           10     6 (average)
  3292                           ; jumptable            263     9 (fixed)
  3293                           ;	Chosen strategy is simple_byte
  3294  07B5  3A40               	xorlw	64	; case 64
  3295  07B6  1903               	skipnz
  3296  07B7  2F94               	goto	l1703
  3297  07B8  3AC0               	xorlw	192	; case 128
  3298  07B9  1903               	skipnz
  3299  07BA  2F9E               	goto	l1705
  3300  07BB  3A40               	xorlw	64	; case 192
  3301  07BC  1903               	skipnz
  3302  07BD  2FA8               	goto	l1707
  3303  07BE  2FBF               	goto	l476
  3304  07BF                     l476:	
  3305                           ;ADC.c: 51: return(adcRAW);
  3306                           ;	Return value of _getADC is never used
  3307                           
  3308  07BF  0008               	return
  3309  07C0                     __end_of_getADC:	
  3310                           
  3311                           	psect	text19
  3312  002F                     __ptext19:	
  3313 ;; *************** function _adcConvertMM *****************
  3314 ;; Defined at:
  3315 ;;		line 59 in file "ADC.c"
  3316 ;; Parameters:    Size  Location     Type
  3317 ;;  adcRAW          2   21[BANK0 ] unsigned int 
  3318 ;; Auto vars:     Size  Location     Type
  3319 ;;		None
  3320 ;; Return value:  Size  Location     Type
  3321 ;;                  2   21[BANK0 ] unsigned int 
  3322 ;; Registers used:
  3323 ;;		wreg, status,2, status,0, pclath, cstack
  3324 ;; Tracked objects:
  3325 ;;		On entry : 0/0
  3326 ;;		On exit  : 0/0
  3327 ;;		Unchanged: 0/0
  3328 ;; Data sizes:     COMMON   BANK0   BANK1   BANK3   BANK2
  3329 ;;      Params:         0       2       0       0       0
  3330 ;;      Locals:         0       0       0       0       0
  3331 ;;      Temps:          0       8       0       0       0
  3332 ;;      Totals:         0      10       0       0       0
  3333 ;;Total ram usage:       10 bytes
  3334 ;; Hardware stack levels used:    1
  3335 ;; Hardware stack levels required when called:    3
  3336 ;; This function calls:
  3337 ;;		___aldiv
  3338 ;;		___lwdiv
  3339 ;;		___wmul
  3340 ;; This function is called by:
  3341 ;;		_ADCMain
  3342 ;; This function uses a non-reentrant model
  3343 ;;
  3344                           
  3345                           
  3346                           ;psect for function _adcConvertMM
  3347  002F                     _adcConvertMM:	
  3348                           
  3349                           ;ADC.c: 61: if (adcRAW < 517 && adcRAW >= 513)
  3350                           
  3351                           ;incstack = 0
  3352                           ; Regs used in _adcConvertMM: [wreg+status,2+status,0+pclath+cstack]
  3353  002F  3002               	movlw	2
  3354  0030  1283               	bcf	3,5	;RP0=0, select bank0
  3355  0031  1303               	bcf	3,6	;RP1=0, select bank0
  3356  0032  025D               	subwf	adcConvertMM@adcRAW+1,w
  3357  0033  3005               	movlw	5
  3358  0034  1903               	skipnz
  3359  0035  025C               	subwf	adcConvertMM@adcRAW,w
  3360  0036  1803               	skipnc
  3361  0037  2898               	goto	l1717
  3362  0038  3002               	movlw	2
  3363  0039  025D               	subwf	adcConvertMM@adcRAW+1,w
  3364  003A  3001               	movlw	1
  3365  003B  1903               	skipnz
  3366  003C  025C               	subwf	adcConvertMM@adcRAW,w
  3367  003D  1C03               	skipc
  3368  003E  2898               	goto	l1717
  3369                           
  3370                           ;ADC.c: 62: Distance = (((51700 - adcRAW*100)/4) + 100);
  3371  003F  3000               	movlw	0
  3372  0040  00D0               	movwf	___aldiv@divisor+3
  3373  0041  3000               	movlw	0
  3374  0042  00CF               	movwf	___aldiv@divisor+2
  3375  0043  3000               	movlw	0
  3376  0044  00CE               	movwf	___aldiv@divisor+1
  3377  0045  3004               	movlw	4
  3378  0046  00CD               	movwf	___aldiv@divisor
  3379  0047  30F4               	movlw	244
  3380  0048  00DE               	movwf	??_adcConvertMM
  3381  0049  30C9               	movlw	201
  3382  004A  00DF               	movwf	??_adcConvertMM+1
  3383  004B  3000               	movlw	0
  3384  004C  00E0               	movwf	??_adcConvertMM+2
  3385  004D  3000               	movlw	0
  3386  004E  00E1               	movwf	??_adcConvertMM+3
  3387  004F  085D               	movf	adcConvertMM@adcRAW+1,w
  3388  0050  00C8               	movwf	___wmul@multiplier+1
  3389  0051  085C               	movf	adcConvertMM@adcRAW,w
  3390  0052  00C7               	movwf	___wmul@multiplier
  3391  0053  3064               	movlw	100
  3392  0054  00C9               	movwf	___wmul@multiplicand
  3393  0055  3000               	movlw	0
  3394  0056  00CA               	movwf	___wmul@multiplicand+1
  3395  0057  120A  158A  26F4  120A  118A  	fcall	___wmul
  3396  005C  1283               	bcf	3,5	;RP0=0, select bank0
  3397  005D  1303               	bcf	3,6	;RP1=0, select bank0
  3398  005E  0847               	movf	?___wmul,w
  3399  005F  00E2               	movwf	??_adcConvertMM+4
  3400  0060  0848               	movf	?___wmul+1,w
  3401  0061  00E3               	movwf	??_adcConvertMM+5
  3402  0062  01E4               	clrf	??_adcConvertMM+6
  3403  0063  01E5               	clrf	??_adcConvertMM+7
  3404  0064  09E2               	comf	??_adcConvertMM+4,f
  3405  0065  09E3               	comf	??_adcConvertMM+5,f
  3406  0066  09E4               	comf	??_adcConvertMM+6,f
  3407  0067  09E5               	comf	??_adcConvertMM+7,f
  3408  0068  0AE2               	incf	??_adcConvertMM+4,f
  3409  0069  1903               	skipnz
  3410  006A  0AE3               	incf	??_adcConvertMM+5,f
  3411  006B  1903               	skipnz
  3412  006C  0AE4               	incf	??_adcConvertMM+6,f
  3413  006D  1903               	skipnz
  3414  006E  0AE5               	incf	??_adcConvertMM+7,f
  3415  006F  0862               	movf	??_adcConvertMM+4,w
  3416  0070  07DE               	addwf	??_adcConvertMM,f
  3417  0071  0863               	movf	??_adcConvertMM+5,w
  3418  0072  1803               	skipnc
  3419  0073  0F63               	incfsz	??_adcConvertMM+5,w
  3420  0074  2876               	goto	u1190
  3421  0075  2877               	goto	u1191
  3422  0076                     u1190:	
  3423  0076  07DF               	addwf	??_adcConvertMM+1,f
  3424  0077                     u1191:	
  3425  0077  0864               	movf	??_adcConvertMM+6,w
  3426  0078  1803               	skipnc
  3427  0079  0F64               	incfsz	??_adcConvertMM+6,w
  3428  007A  287C               	goto	u1192
  3429  007B  287D               	goto	u1193
  3430  007C                     u1192:	
  3431  007C  07E0               	addwf	??_adcConvertMM+2,f
  3432  007D                     u1193:	
  3433  007D  0865               	movf	??_adcConvertMM+7,w
  3434  007E  1803               	skipnc
  3435  007F  0A65               	incf	??_adcConvertMM+7,w
  3436  0080  07E1               	addwf	??_adcConvertMM+3,f
  3437  0081  0861               	movf	??_adcConvertMM+3,w
  3438  0082  00D4               	movwf	___aldiv@dividend+3
  3439  0083  0860               	movf	??_adcConvertMM+2,w
  3440  0084  00D3               	movwf	___aldiv@dividend+2
  3441  0085  085F               	movf	??_adcConvertMM+1,w
  3442  0086  00D2               	movwf	___aldiv@dividend+1
  3443  0087  085E               	movf	??_adcConvertMM,w
  3444  0088  00D1               	movwf	___aldiv@dividend
  3445  0089  120A  118A  2613  120A  118A  	fcall	___aldiv
  3446  008E  1283               	bcf	3,5	;RP0=0, select bank0
  3447  008F  1303               	bcf	3,6	;RP1=0, select bank0
  3448  0090  084D               	movf	?___aldiv,w
  3449  0091  3E64               	addlw	100
  3450  0092  00A0               	movwf	_Distance	;volatile
  3451  0093  084E               	movf	?___aldiv+1,w
  3452  0094  1803               	skipnc
  3453  0095  3E01               	addlw	1
  3454  0096  3E00               	addlw	0
  3455  0097  00A1               	movwf	_Distance+1	;volatile
  3456  0098                     l1717:	
  3457                           
  3458                           ;ADC.c: 64: if (adcRAW < 513 && adcRAW >= 393)
  3459  0098  3002               	movlw	2
  3460  0099  025D               	subwf	adcConvertMM@adcRAW+1,w
  3461  009A  3001               	movlw	1
  3462  009B  1903               	skipnz
  3463  009C  025C               	subwf	adcConvertMM@adcRAW,w
  3464  009D  1803               	skipnc
  3465  009E  28FF               	goto	l1723
  3466  009F  3001               	movlw	1
  3467  00A0  025D               	subwf	adcConvertMM@adcRAW+1,w
  3468  00A1  3089               	movlw	137
  3469  00A2  1903               	skipnz
  3470  00A3  025C               	subwf	adcConvertMM@adcRAW,w
  3471  00A4  1C03               	skipc
  3472  00A5  28FF               	goto	l1723
  3473                           
  3474                           ;ADC.c: 65: Distance = (((51300 - adcRAW*100)/120) + 200);
  3475  00A6  3000               	movlw	0
  3476  00A7  00D0               	movwf	___aldiv@divisor+3
  3477  00A8  3000               	movlw	0
  3478  00A9  00CF               	movwf	___aldiv@divisor+2
  3479  00AA  3000               	movlw	0
  3480  00AB  00CE               	movwf	___aldiv@divisor+1
  3481  00AC  3078               	movlw	120
  3482  00AD  00CD               	movwf	___aldiv@divisor
  3483  00AE  3064               	movlw	100
  3484  00AF  00DE               	movwf	??_adcConvertMM
  3485  00B0  30C8               	movlw	200
  3486  00B1  00DF               	movwf	??_adcConvertMM+1
  3487  00B2  3000               	movlw	0
  3488  00B3  00E0               	movwf	??_adcConvertMM+2
  3489  00B4  3000               	movlw	0
  3490  00B5  00E1               	movwf	??_adcConvertMM+3
  3491  00B6  085D               	movf	adcConvertMM@adcRAW+1,w
  3492  00B7  00C8               	movwf	___wmul@multiplier+1
  3493  00B8  085C               	movf	adcConvertMM@adcRAW,w
  3494  00B9  00C7               	movwf	___wmul@multiplier
  3495  00BA  3064               	movlw	100
  3496  00BB  00C9               	movwf	___wmul@multiplicand
  3497  00BC  3000               	movlw	0
  3498  00BD  00CA               	movwf	___wmul@multiplicand+1
  3499  00BE  120A  158A  26F4  120A  118A  	fcall	___wmul
  3500  00C3  1283               	bcf	3,5	;RP0=0, select bank0
  3501  00C4  1303               	bcf	3,6	;RP1=0, select bank0
  3502  00C5  0847               	movf	?___wmul,w
  3503  00C6  00E2               	movwf	??_adcConvertMM+4
  3504  00C7  0848               	movf	?___wmul+1,w
  3505  00C8  00E3               	movwf	??_adcConvertMM+5
  3506  00C9  01E4               	clrf	??_adcConvertMM+6
  3507  00CA  01E5               	clrf	??_adcConvertMM+7
  3508  00CB  09E2               	comf	??_adcConvertMM+4,f
  3509  00CC  09E3               	comf	??_adcConvertMM+5,f
  3510  00CD  09E4               	comf	??_adcConvertMM+6,f
  3511  00CE  09E5               	comf	??_adcConvertMM+7,f
  3512  00CF  0AE2               	incf	??_adcConvertMM+4,f
  3513  00D0  1903               	skipnz
  3514  00D1  0AE3               	incf	??_adcConvertMM+5,f
  3515  00D2  1903               	skipnz
  3516  00D3  0AE4               	incf	??_adcConvertMM+6,f
  3517  00D4  1903               	skipnz
  3518  00D5  0AE5               	incf	??_adcConvertMM+7,f
  3519  00D6  0862               	movf	??_adcConvertMM+4,w
  3520  00D7  07DE               	addwf	??_adcConvertMM,f
  3521  00D8  0863               	movf	??_adcConvertMM+5,w
  3522  00D9  1803               	skipnc
  3523  00DA  0F63               	incfsz	??_adcConvertMM+5,w
  3524  00DB  28DD               	goto	u1220
  3525  00DC  28DE               	goto	u1221
  3526  00DD                     u1220:	
  3527  00DD  07DF               	addwf	??_adcConvertMM+1,f
  3528  00DE                     u1221:	
  3529  00DE  0864               	movf	??_adcConvertMM+6,w
  3530  00DF  1803               	skipnc
  3531  00E0  0F64               	incfsz	??_adcConvertMM+6,w
  3532  00E1  28E3               	goto	u1222
  3533  00E2  28E4               	goto	u1223
  3534  00E3                     u1222:	
  3535  00E3  07E0               	addwf	??_adcConvertMM+2,f
  3536  00E4                     u1223:	
  3537  00E4  0865               	movf	??_adcConvertMM+7,w
  3538  00E5  1803               	skipnc
  3539  00E6  0A65               	incf	??_adcConvertMM+7,w
  3540  00E7  07E1               	addwf	??_adcConvertMM+3,f
  3541  00E8  0861               	movf	??_adcConvertMM+3,w
  3542  00E9  00D4               	movwf	___aldiv@dividend+3
  3543  00EA  0860               	movf	??_adcConvertMM+2,w
  3544  00EB  00D3               	movwf	___aldiv@dividend+2
  3545  00EC  085F               	movf	??_adcConvertMM+1,w
  3546  00ED  00D2               	movwf	___aldiv@dividend+1
  3547  00EE  085E               	movf	??_adcConvertMM,w
  3548  00EF  00D1               	movwf	___aldiv@dividend
  3549  00F0  120A  118A  2613  120A  118A  	fcall	___aldiv
  3550  00F5  1283               	bcf	3,5	;RP0=0, select bank0
  3551  00F6  1303               	bcf	3,6	;RP1=0, select bank0
  3552  00F7  084D               	movf	?___aldiv,w
  3553  00F8  3EC8               	addlw	200
  3554  00F9  00A0               	movwf	_Distance	;volatile
  3555  00FA  084E               	movf	?___aldiv+1,w
  3556  00FB  1803               	skipnc
  3557  00FC  3E01               	addlw	1
  3558  00FD  3E00               	addlw	0
  3559  00FE  00A1               	movwf	_Distance+1	;volatile
  3560  00FF                     l1723:	
  3561                           
  3562                           ;ADC.c: 67: if (adcRAW < 393 && adcRAW >= 298)
  3563  00FF  3001               	movlw	1
  3564  0100  025D               	subwf	adcConvertMM@adcRAW+1,w
  3565  0101  3089               	movlw	137
  3566  0102  1903               	skipnz
  3567  0103  025C               	subwf	adcConvertMM@adcRAW,w
  3568  0104  1803               	skipnc
  3569  0105  2966               	goto	l1729
  3570  0106  3001               	movlw	1
  3571  0107  025D               	subwf	adcConvertMM@adcRAW+1,w
  3572  0108  302A               	movlw	42
  3573  0109  1903               	skipnz
  3574  010A  025C               	subwf	adcConvertMM@adcRAW,w
  3575  010B  1C03               	skipc
  3576  010C  2966               	goto	l1729
  3577                           
  3578                           ;ADC.c: 68: Distance = (((39300 - adcRAW*100)/95) + 300);
  3579  010D  3000               	movlw	0
  3580  010E  00D0               	movwf	___aldiv@divisor+3
  3581  010F  3000               	movlw	0
  3582  0110  00CF               	movwf	___aldiv@divisor+2
  3583  0111  3000               	movlw	0
  3584  0112  00CE               	movwf	___aldiv@divisor+1
  3585  0113  305F               	movlw	95
  3586  0114  00CD               	movwf	___aldiv@divisor
  3587  0115  3084               	movlw	132
  3588  0116  00DE               	movwf	??_adcConvertMM
  3589  0117  3099               	movlw	153
  3590  0118  00DF               	movwf	??_adcConvertMM+1
  3591  0119  3000               	movlw	0
  3592  011A  00E0               	movwf	??_adcConvertMM+2
  3593  011B  3000               	movlw	0
  3594  011C  00E1               	movwf	??_adcConvertMM+3
  3595  011D  085D               	movf	adcConvertMM@adcRAW+1,w
  3596  011E  00C8               	movwf	___wmul@multiplier+1
  3597  011F  085C               	movf	adcConvertMM@adcRAW,w
  3598  0120  00C7               	movwf	___wmul@multiplier
  3599  0121  3064               	movlw	100
  3600  0122  00C9               	movwf	___wmul@multiplicand
  3601  0123  3000               	movlw	0
  3602  0124  00CA               	movwf	___wmul@multiplicand+1
  3603  0125  120A  158A  26F4  120A  118A  	fcall	___wmul
  3604  012A  1283               	bcf	3,5	;RP0=0, select bank0
  3605  012B  1303               	bcf	3,6	;RP1=0, select bank0
  3606  012C  0847               	movf	?___wmul,w
  3607  012D  00E2               	movwf	??_adcConvertMM+4
  3608  012E  0848               	movf	?___wmul+1,w
  3609  012F  00E3               	movwf	??_adcConvertMM+5
  3610  0130  01E4               	clrf	??_adcConvertMM+6
  3611  0131  01E5               	clrf	??_adcConvertMM+7
  3612  0132  09E2               	comf	??_adcConvertMM+4,f
  3613  0133  09E3               	comf	??_adcConvertMM+5,f
  3614  0134  09E4               	comf	??_adcConvertMM+6,f
  3615  0135  09E5               	comf	??_adcConvertMM+7,f
  3616  0136  0AE2               	incf	??_adcConvertMM+4,f
  3617  0137  1903               	skipnz
  3618  0138  0AE3               	incf	??_adcConvertMM+5,f
  3619  0139  1903               	skipnz
  3620  013A  0AE4               	incf	??_adcConvertMM+6,f
  3621  013B  1903               	skipnz
  3622  013C  0AE5               	incf	??_adcConvertMM+7,f
  3623  013D  0862               	movf	??_adcConvertMM+4,w
  3624  013E  07DE               	addwf	??_adcConvertMM,f
  3625  013F  0863               	movf	??_adcConvertMM+5,w
  3626  0140  1803               	skipnc
  3627  0141  0F63               	incfsz	??_adcConvertMM+5,w
  3628  0142  2944               	goto	u1250
  3629  0143  2945               	goto	u1251
  3630  0144                     u1250:	
  3631  0144  07DF               	addwf	??_adcConvertMM+1,f
  3632  0145                     u1251:	
  3633  0145  0864               	movf	??_adcConvertMM+6,w
  3634  0146  1803               	skipnc
  3635  0147  0F64               	incfsz	??_adcConvertMM+6,w
  3636  0148  294A               	goto	u1252
  3637  0149  294B               	goto	u1253
  3638  014A                     u1252:	
  3639  014A  07E0               	addwf	??_adcConvertMM+2,f
  3640  014B                     u1253:	
  3641  014B  0865               	movf	??_adcConvertMM+7,w
  3642  014C  1803               	skipnc
  3643  014D  0A65               	incf	??_adcConvertMM+7,w
  3644  014E  07E1               	addwf	??_adcConvertMM+3,f
  3645  014F  0861               	movf	??_adcConvertMM+3,w
  3646  0150  00D4               	movwf	___aldiv@dividend+3
  3647  0151  0860               	movf	??_adcConvertMM+2,w
  3648  0152  00D3               	movwf	___aldiv@dividend+2
  3649  0153  085F               	movf	??_adcConvertMM+1,w
  3650  0154  00D2               	movwf	___aldiv@dividend+1
  3651  0155  085E               	movf	??_adcConvertMM,w
  3652  0156  00D1               	movwf	___aldiv@dividend
  3653  0157  120A  118A  2613  120A  118A  	fcall	___aldiv
  3654  015C  1283               	bcf	3,5	;RP0=0, select bank0
  3655  015D  1303               	bcf	3,6	;RP1=0, select bank0
  3656  015E  084D               	movf	?___aldiv,w
  3657  015F  3E2C               	addlw	44
  3658  0160  00A0               	movwf	_Distance	;volatile
  3659  0161  084E               	movf	?___aldiv+1,w
  3660  0162  1803               	skipnc
  3661  0163  3E01               	addlw	1
  3662  0164  3E01               	addlw	1
  3663  0165  00A1               	movwf	_Distance+1	;volatile
  3664  0166                     l1729:	
  3665                           
  3666                           ;ADC.c: 70: if (adcRAW < 298 && adcRAW >= 236)
  3667  0166  3001               	movlw	1
  3668  0167  025D               	subwf	adcConvertMM@adcRAW+1,w
  3669  0168  302A               	movlw	42
  3670  0169  1903               	skipnz
  3671  016A  025C               	subwf	adcConvertMM@adcRAW,w
  3672  016B  1803               	skipnc
  3673  016C  29A5               	goto	l1735
  3674  016D  3000               	movlw	0
  3675  016E  025D               	subwf	adcConvertMM@adcRAW+1,w
  3676  016F  30EC               	movlw	236
  3677  0170  1903               	skipnz
  3678  0171  025C               	subwf	adcConvertMM@adcRAW,w
  3679  0172  1C03               	skipc
  3680  0173  29A5               	goto	l1735
  3681                           
  3682                           ;ADC.c: 71: Distance = (((29800 - adcRAW*100)/62) + 400);
  3683  0174  303E               	movlw	62
  3684  0175  00CD               	movwf	___lwdiv@divisor
  3685  0176  3000               	movlw	0
  3686  0177  00CE               	movwf	___lwdiv@divisor+1
  3687  0178  085D               	movf	adcConvertMM@adcRAW+1,w
  3688  0179  00C8               	movwf	___wmul@multiplier+1
  3689  017A  085C               	movf	adcConvertMM@adcRAW,w
  3690  017B  00C7               	movwf	___wmul@multiplier
  3691  017C  3064               	movlw	100
  3692  017D  00C9               	movwf	___wmul@multiplicand
  3693  017E  3000               	movlw	0
  3694  017F  00CA               	movwf	___wmul@multiplicand+1
  3695  0180  120A  158A  26F4  120A  118A  	fcall	___wmul
  3696  0185  1283               	bcf	3,5	;RP0=0, select bank0
  3697  0186  1303               	bcf	3,6	;RP1=0, select bank0
  3698  0187  0947               	comf	?___wmul,w
  3699  0188  00DE               	movwf	??_adcConvertMM
  3700  0189  0948               	comf	?___wmul+1,w
  3701  018A  00DF               	movwf	??_adcConvertMM+1
  3702  018B  0ADE               	incf	??_adcConvertMM,f
  3703  018C  1903               	skipnz
  3704  018D  0ADF               	incf	??_adcConvertMM+1,f
  3705  018E  085E               	movf	??_adcConvertMM,w
  3706  018F  3E68               	addlw	104
  3707  0190  00CF               	movwf	___lwdiv@dividend
  3708  0191  085F               	movf	??_adcConvertMM+1,w
  3709  0192  1803               	skipnc
  3710  0193  3E01               	addlw	1
  3711  0194  3E74               	addlw	116
  3712  0195  00D0               	movwf	___lwdiv@dividend+1
  3713  0196  120A  158A  27C2  120A  118A  	fcall	___lwdiv
  3714  019B  1283               	bcf	3,5	;RP0=0, select bank0
  3715  019C  1303               	bcf	3,6	;RP1=0, select bank0
  3716  019D  084D               	movf	?___lwdiv,w
  3717  019E  3E90               	addlw	144
  3718  019F  00A0               	movwf	_Distance	;volatile
  3719  01A0  084E               	movf	?___lwdiv+1,w
  3720  01A1  1803               	skipnc
  3721  01A2  3E01               	addlw	1
  3722  01A3  3E01               	addlw	1
  3723  01A4  00A1               	movwf	_Distance+1	;volatile
  3724  01A5                     l1735:	
  3725                           
  3726                           ;ADC.c: 73: if (adcRAW < 236 && adcRAW >= 194)
  3727  01A5  3000               	movlw	0
  3728  01A6  025D               	subwf	adcConvertMM@adcRAW+1,w
  3729  01A7  30EC               	movlw	236
  3730  01A8  1903               	skipnz
  3731  01A9  025C               	subwf	adcConvertMM@adcRAW,w
  3732  01AA  1803               	skipnc
  3733  01AB  29E4               	goto	l1741
  3734  01AC  3000               	movlw	0
  3735  01AD  025D               	subwf	adcConvertMM@adcRAW+1,w
  3736  01AE  30C2               	movlw	194
  3737  01AF  1903               	skipnz
  3738  01B0  025C               	subwf	adcConvertMM@adcRAW,w
  3739  01B1  1C03               	skipc
  3740  01B2  29E4               	goto	l1741
  3741                           
  3742                           ;ADC.c: 74: Distance = (((23600 - adcRAW*100)/42) + 500);
  3743  01B3  302A               	movlw	42
  3744  01B4  00CD               	movwf	___lwdiv@divisor
  3745  01B5  3000               	movlw	0
  3746  01B6  00CE               	movwf	___lwdiv@divisor+1
  3747  01B7  085D               	movf	adcConvertMM@adcRAW+1,w
  3748  01B8  00C8               	movwf	___wmul@multiplier+1
  3749  01B9  085C               	movf	adcConvertMM@adcRAW,w
  3750  01BA  00C7               	movwf	___wmul@multiplier
  3751  01BB  3064               	movlw	100
  3752  01BC  00C9               	movwf	___wmul@multiplicand
  3753  01BD  3000               	movlw	0
  3754  01BE  00CA               	movwf	___wmul@multiplicand+1
  3755  01BF  120A  158A  26F4  120A  118A  	fcall	___wmul
  3756  01C4  1283               	bcf	3,5	;RP0=0, select bank0
  3757  01C5  1303               	bcf	3,6	;RP1=0, select bank0
  3758  01C6  0947               	comf	?___wmul,w
  3759  01C7  00DE               	movwf	??_adcConvertMM
  3760  01C8  0948               	comf	?___wmul+1,w
  3761  01C9  00DF               	movwf	??_adcConvertMM+1
  3762  01CA  0ADE               	incf	??_adcConvertMM,f
  3763  01CB  1903               	skipnz
  3764  01CC  0ADF               	incf	??_adcConvertMM+1,f
  3765  01CD  085E               	movf	??_adcConvertMM,w
  3766  01CE  3E30               	addlw	48
  3767  01CF  00CF               	movwf	___lwdiv@dividend
  3768  01D0  085F               	movf	??_adcConvertMM+1,w
  3769  01D1  1803               	skipnc
  3770  01D2  3E01               	addlw	1
  3771  01D3  3E5C               	addlw	92
  3772  01D4  00D0               	movwf	___lwdiv@dividend+1
  3773  01D5  120A  158A  27C2  120A  118A  	fcall	___lwdiv
  3774  01DA  1283               	bcf	3,5	;RP0=0, select bank0
  3775  01DB  1303               	bcf	3,6	;RP1=0, select bank0
  3776  01DC  084D               	movf	?___lwdiv,w
  3777  01DD  3EF4               	addlw	244
  3778  01DE  00A0               	movwf	_Distance	;volatile
  3779  01DF  084E               	movf	?___lwdiv+1,w
  3780  01E0  1803               	skipnc
  3781  01E1  3E01               	addlw	1
  3782  01E2  3E01               	addlw	1
  3783  01E3  00A1               	movwf	_Distance+1	;volatile
  3784  01E4                     l1741:	
  3785                           
  3786                           ;ADC.c: 76: if (adcRAW < 194 && adcRAW >= 168)
  3787  01E4  3000               	movlw	0
  3788  01E5  025D               	subwf	adcConvertMM@adcRAW+1,w
  3789  01E6  30C2               	movlw	194
  3790  01E7  1903               	skipnz
  3791  01E8  025C               	subwf	adcConvertMM@adcRAW,w
  3792  01E9  1803               	skipnc
  3793  01EA  2A23               	goto	l1747
  3794  01EB  3000               	movlw	0
  3795  01EC  025D               	subwf	adcConvertMM@adcRAW+1,w
  3796  01ED  30A8               	movlw	168
  3797  01EE  1903               	skipnz
  3798  01EF  025C               	subwf	adcConvertMM@adcRAW,w
  3799  01F0  1C03               	skipc
  3800  01F1  2A23               	goto	l1747
  3801                           
  3802                           ;ADC.c: 77: Distance = (((19400 - adcRAW*100)/26) + 600);
  3803  01F2  301A               	movlw	26
  3804  01F3  00CD               	movwf	___lwdiv@divisor
  3805  01F4  3000               	movlw	0
  3806  01F5  00CE               	movwf	___lwdiv@divisor+1
  3807  01F6  085D               	movf	adcConvertMM@adcRAW+1,w
  3808  01F7  00C8               	movwf	___wmul@multiplier+1
  3809  01F8  085C               	movf	adcConvertMM@adcRAW,w
  3810  01F9  00C7               	movwf	___wmul@multiplier
  3811  01FA  3064               	movlw	100
  3812  01FB  00C9               	movwf	___wmul@multiplicand
  3813  01FC  3000               	movlw	0
  3814  01FD  00CA               	movwf	___wmul@multiplicand+1
  3815  01FE  120A  158A  26F4  120A  118A  	fcall	___wmul
  3816  0203  1283               	bcf	3,5	;RP0=0, select bank0
  3817  0204  1303               	bcf	3,6	;RP1=0, select bank0
  3818  0205  0947               	comf	?___wmul,w
  3819  0206  00DE               	movwf	??_adcConvertMM
  3820  0207  0948               	comf	?___wmul+1,w
  3821  0208  00DF               	movwf	??_adcConvertMM+1
  3822  0209  0ADE               	incf	??_adcConvertMM,f
  3823  020A  1903               	skipnz
  3824  020B  0ADF               	incf	??_adcConvertMM+1,f
  3825  020C  085E               	movf	??_adcConvertMM,w
  3826  020D  3EC8               	addlw	200
  3827  020E  00CF               	movwf	___lwdiv@dividend
  3828  020F  085F               	movf	??_adcConvertMM+1,w
  3829  0210  1803               	skipnc
  3830  0211  3E01               	addlw	1
  3831  0212  3E4B               	addlw	75
  3832  0213  00D0               	movwf	___lwdiv@dividend+1
  3833  0214  120A  158A  27C2  120A  118A  	fcall	___lwdiv
  3834  0219  1283               	bcf	3,5	;RP0=0, select bank0
  3835  021A  1303               	bcf	3,6	;RP1=0, select bank0
  3836  021B  084D               	movf	?___lwdiv,w
  3837  021C  3E58               	addlw	88
  3838  021D  00A0               	movwf	_Distance	;volatile
  3839  021E  084E               	movf	?___lwdiv+1,w
  3840  021F  1803               	skipnc
  3841  0220  3E01               	addlw	1
  3842  0221  3E02               	addlw	2
  3843  0222  00A1               	movwf	_Distance+1	;volatile
  3844  0223                     l1747:	
  3845                           
  3846                           ;ADC.c: 79: if (adcRAW < 168 && adcRAW >= 144)
  3847  0223  3000               	movlw	0
  3848  0224  025D               	subwf	adcConvertMM@adcRAW+1,w
  3849  0225  30A8               	movlw	168
  3850  0226  1903               	skipnz
  3851  0227  025C               	subwf	adcConvertMM@adcRAW,w
  3852  0228  1803               	skipnc
  3853  0229  2A62               	goto	l1753
  3854  022A  3000               	movlw	0
  3855  022B  025D               	subwf	adcConvertMM@adcRAW+1,w
  3856  022C  3090               	movlw	144
  3857  022D  1903               	skipnz
  3858  022E  025C               	subwf	adcConvertMM@adcRAW,w
  3859  022F  1C03               	skipc
  3860  0230  2A62               	goto	l1753
  3861                           
  3862                           ;ADC.c: 80: Distance = (((16800 - adcRAW*100)/24) + 700);
  3863  0231  3018               	movlw	24
  3864  0232  00CD               	movwf	___lwdiv@divisor
  3865  0233  3000               	movlw	0
  3866  0234  00CE               	movwf	___lwdiv@divisor+1
  3867  0235  085D               	movf	adcConvertMM@adcRAW+1,w
  3868  0236  00C8               	movwf	___wmul@multiplier+1
  3869  0237  085C               	movf	adcConvertMM@adcRAW,w
  3870  0238  00C7               	movwf	___wmul@multiplier
  3871  0239  3064               	movlw	100
  3872  023A  00C9               	movwf	___wmul@multiplicand
  3873  023B  3000               	movlw	0
  3874  023C  00CA               	movwf	___wmul@multiplicand+1
  3875  023D  120A  158A  26F4  120A  118A  	fcall	___wmul
  3876  0242  1283               	bcf	3,5	;RP0=0, select bank0
  3877  0243  1303               	bcf	3,6	;RP1=0, select bank0
  3878  0244  0947               	comf	?___wmul,w
  3879  0245  00DE               	movwf	??_adcConvertMM
  3880  0246  0948               	comf	?___wmul+1,w
  3881  0247  00DF               	movwf	??_adcConvertMM+1
  3882  0248  0ADE               	incf	??_adcConvertMM,f
  3883  0249  1903               	skipnz
  3884  024A  0ADF               	incf	??_adcConvertMM+1,f
  3885  024B  085E               	movf	??_adcConvertMM,w
  3886  024C  3EA0               	addlw	160
  3887  024D  00CF               	movwf	___lwdiv@dividend
  3888  024E  085F               	movf	??_adcConvertMM+1,w
  3889  024F  1803               	skipnc
  3890  0250  3E01               	addlw	1
  3891  0251  3E41               	addlw	65
  3892  0252  00D0               	movwf	___lwdiv@dividend+1
  3893  0253  120A  158A  27C2  120A  118A  	fcall	___lwdiv
  3894  0258  1283               	bcf	3,5	;RP0=0, select bank0
  3895  0259  1303               	bcf	3,6	;RP1=0, select bank0
  3896  025A  084D               	movf	?___lwdiv,w
  3897  025B  3EBC               	addlw	188
  3898  025C  00A0               	movwf	_Distance	;volatile
  3899  025D  084E               	movf	?___lwdiv+1,w
  3900  025E  1803               	skipnc
  3901  025F  3E01               	addlw	1
  3902  0260  3E02               	addlw	2
  3903  0261  00A1               	movwf	_Distance+1	;volatile
  3904  0262                     l1753:	
  3905                           
  3906                           ;ADC.c: 82: if (adcRAW < 144 && adcRAW >= 129)
  3907  0262  3000               	movlw	0
  3908  0263  025D               	subwf	adcConvertMM@adcRAW+1,w
  3909  0264  3090               	movlw	144
  3910  0265  1903               	skipnz
  3911  0266  025C               	subwf	adcConvertMM@adcRAW,w
  3912  0267  1803               	skipnc
  3913  0268  2AA1               	goto	l1759
  3914  0269  3000               	movlw	0
  3915  026A  025D               	subwf	adcConvertMM@adcRAW+1,w
  3916  026B  3081               	movlw	129
  3917  026C  1903               	skipnz
  3918  026D  025C               	subwf	adcConvertMM@adcRAW,w
  3919  026E  1C03               	skipc
  3920  026F  2AA1               	goto	l1759
  3921                           
  3922                           ;ADC.c: 83: Distance = (((14400 - adcRAW*100)/15) + 800);
  3923  0270  300F               	movlw	15
  3924  0271  00CD               	movwf	___lwdiv@divisor
  3925  0272  3000               	movlw	0
  3926  0273  00CE               	movwf	___lwdiv@divisor+1
  3927  0274  085D               	movf	adcConvertMM@adcRAW+1,w
  3928  0275  00C8               	movwf	___wmul@multiplier+1
  3929  0276  085C               	movf	adcConvertMM@adcRAW,w
  3930  0277  00C7               	movwf	___wmul@multiplier
  3931  0278  3064               	movlw	100
  3932  0279  00C9               	movwf	___wmul@multiplicand
  3933  027A  3000               	movlw	0
  3934  027B  00CA               	movwf	___wmul@multiplicand+1
  3935  027C  120A  158A  26F4  120A  118A  	fcall	___wmul
  3936  0281  1283               	bcf	3,5	;RP0=0, select bank0
  3937  0282  1303               	bcf	3,6	;RP1=0, select bank0
  3938  0283  0947               	comf	?___wmul,w
  3939  0284  00DE               	movwf	??_adcConvertMM
  3940  0285  0948               	comf	?___wmul+1,w
  3941  0286  00DF               	movwf	??_adcConvertMM+1
  3942  0287  0ADE               	incf	??_adcConvertMM,f
  3943  0288  1903               	skipnz
  3944  0289  0ADF               	incf	??_adcConvertMM+1,f
  3945  028A  085E               	movf	??_adcConvertMM,w
  3946  028B  3E40               	addlw	64
  3947  028C  00CF               	movwf	___lwdiv@dividend
  3948  028D  085F               	movf	??_adcConvertMM+1,w
  3949  028E  1803               	skipnc
  3950  028F  3E01               	addlw	1
  3951  0290  3E38               	addlw	56
  3952  0291  00D0               	movwf	___lwdiv@dividend+1
  3953  0292  120A  158A  27C2  120A  118A  	fcall	___lwdiv
  3954  0297  1283               	bcf	3,5	;RP0=0, select bank0
  3955  0298  1303               	bcf	3,6	;RP1=0, select bank0
  3956  0299  084D               	movf	?___lwdiv,w
  3957  029A  3E20               	addlw	32
  3958  029B  00A0               	movwf	_Distance	;volatile
  3959  029C  084E               	movf	?___lwdiv+1,w
  3960  029D  1803               	skipnc
  3961  029E  3E01               	addlw	1
  3962  029F  3E03               	addlw	3
  3963  02A0  00A1               	movwf	_Distance+1	;volatile
  3964  02A1                     l1759:	
  3965                           
  3966                           ;ADC.c: 85: if (adcRAW < 129 && adcRAW >= 110)
  3967  02A1  3000               	movlw	0
  3968  02A2  025D               	subwf	adcConvertMM@adcRAW+1,w
  3969  02A3  3081               	movlw	129
  3970  02A4  1903               	skipnz
  3971  02A5  025C               	subwf	adcConvertMM@adcRAW,w
  3972  02A6  1803               	skipnc
  3973  02A7  2AE0               	goto	l1765
  3974  02A8  3000               	movlw	0
  3975  02A9  025D               	subwf	adcConvertMM@adcRAW+1,w
  3976  02AA  306E               	movlw	110
  3977  02AB  1903               	skipnz
  3978  02AC  025C               	subwf	adcConvertMM@adcRAW,w
  3979  02AD  1C03               	skipc
  3980  02AE  2AE0               	goto	l1765
  3981                           
  3982                           ;ADC.c: 86: Distance = (((12900 - adcRAW*100)/19) + 900 + 50);
  3983  02AF  3013               	movlw	19
  3984  02B0  00CD               	movwf	___lwdiv@divisor
  3985  02B1  3000               	movlw	0
  3986  02B2  00CE               	movwf	___lwdiv@divisor+1
  3987  02B3  085D               	movf	adcConvertMM@adcRAW+1,w
  3988  02B4  00C8               	movwf	___wmul@multiplier+1
  3989  02B5  085C               	movf	adcConvertMM@adcRAW,w
  3990  02B6  00C7               	movwf	___wmul@multiplier
  3991  02B7  3064               	movlw	100
  3992  02B8  00C9               	movwf	___wmul@multiplicand
  3993  02B9  3000               	movlw	0
  3994  02BA  00CA               	movwf	___wmul@multiplicand+1
  3995  02BB  120A  158A  26F4  120A  118A  	fcall	___wmul
  3996  02C0  1283               	bcf	3,5	;RP0=0, select bank0
  3997  02C1  1303               	bcf	3,6	;RP1=0, select bank0
  3998  02C2  0947               	comf	?___wmul,w
  3999  02C3  00DE               	movwf	??_adcConvertMM
  4000  02C4  0948               	comf	?___wmul+1,w
  4001  02C5  00DF               	movwf	??_adcConvertMM+1
  4002  02C6  0ADE               	incf	??_adcConvertMM,f
  4003  02C7  1903               	skipnz
  4004  02C8  0ADF               	incf	??_adcConvertMM+1,f
  4005  02C9  085E               	movf	??_adcConvertMM,w
  4006  02CA  3E64               	addlw	100
  4007  02CB  00CF               	movwf	___lwdiv@dividend
  4008  02CC  085F               	movf	??_adcConvertMM+1,w
  4009  02CD  1803               	skipnc
  4010  02CE  3E01               	addlw	1
  4011  02CF  3E32               	addlw	50
  4012  02D0  00D0               	movwf	___lwdiv@dividend+1
  4013  02D1  120A  158A  27C2  120A  118A  	fcall	___lwdiv
  4014  02D6  1283               	bcf	3,5	;RP0=0, select bank0
  4015  02D7  1303               	bcf	3,6	;RP1=0, select bank0
  4016  02D8  084D               	movf	?___lwdiv,w
  4017  02D9  3EB6               	addlw	182
  4018  02DA  00A0               	movwf	_Distance	;volatile
  4019  02DB  084E               	movf	?___lwdiv+1,w
  4020  02DC  1803               	skipnc
  4021  02DD  3E01               	addlw	1
  4022  02DE  3E03               	addlw	3
  4023  02DF  00A1               	movwf	_Distance+1	;volatile
  4024  02E0                     l1765:	
  4025                           
  4026                           ;ADC.c: 88: if (adcRAW < 110 && adcRAW >= 98)
  4027  02E0  3000               	movlw	0
  4028  02E1  025D               	subwf	adcConvertMM@adcRAW+1,w
  4029  02E2  306E               	movlw	110
  4030  02E3  1903               	skipnz
  4031  02E4  025C               	subwf	adcConvertMM@adcRAW,w
  4032  02E5  1803               	skipnc
  4033  02E6  2B1F               	goto	l1771
  4034  02E7  3000               	movlw	0
  4035  02E8  025D               	subwf	adcConvertMM@adcRAW+1,w
  4036  02E9  3062               	movlw	98
  4037  02EA  1903               	skipnz
  4038  02EB  025C               	subwf	adcConvertMM@adcRAW,w
  4039  02EC  1C03               	skipc
  4040  02ED  2B1F               	goto	l1771
  4041                           
  4042                           ;ADC.c: 89: Distance = (((11000 - adcRAW*100)/12) + 1000 + 100);
  4043  02EE  300C               	movlw	12
  4044  02EF  00CD               	movwf	___lwdiv@divisor
  4045  02F0  3000               	movlw	0
  4046  02F1  00CE               	movwf	___lwdiv@divisor+1
  4047  02F2  085D               	movf	adcConvertMM@adcRAW+1,w
  4048  02F3  00C8               	movwf	___wmul@multiplier+1
  4049  02F4  085C               	movf	adcConvertMM@adcRAW,w
  4050  02F5  00C7               	movwf	___wmul@multiplier
  4051  02F6  3064               	movlw	100
  4052  02F7  00C9               	movwf	___wmul@multiplicand
  4053  02F8  3000               	movlw	0
  4054  02F9  00CA               	movwf	___wmul@multiplicand+1
  4055  02FA  120A  158A  26F4  120A  118A  	fcall	___wmul
  4056  02FF  1283               	bcf	3,5	;RP0=0, select bank0
  4057  0300  1303               	bcf	3,6	;RP1=0, select bank0
  4058  0301  0947               	comf	?___wmul,w
  4059  0302  00DE               	movwf	??_adcConvertMM
  4060  0303  0948               	comf	?___wmul+1,w
  4061  0304  00DF               	movwf	??_adcConvertMM+1
  4062  0305  0ADE               	incf	??_adcConvertMM,f
  4063  0306  1903               	skipnz
  4064  0307  0ADF               	incf	??_adcConvertMM+1,f
  4065  0308  085E               	movf	??_adcConvertMM,w
  4066  0309  3EF8               	addlw	248
  4067  030A  00CF               	movwf	___lwdiv@dividend
  4068  030B  085F               	movf	??_adcConvertMM+1,w
  4069  030C  1803               	skipnc
  4070  030D  3E01               	addlw	1
  4071  030E  3E2A               	addlw	42
  4072  030F  00D0               	movwf	___lwdiv@dividend+1
  4073  0310  120A  158A  27C2  120A  118A  	fcall	___lwdiv
  4074  0315  1283               	bcf	3,5	;RP0=0, select bank0
  4075  0316  1303               	bcf	3,6	;RP1=0, select bank0
  4076  0317  084D               	movf	?___lwdiv,w
  4077  0318  3E4C               	addlw	76
  4078  0319  00A0               	movwf	_Distance	;volatile
  4079  031A  084E               	movf	?___lwdiv+1,w
  4080  031B  1803               	skipnc
  4081  031C  3E01               	addlw	1
  4082  031D  3E04               	addlw	4
  4083  031E  00A1               	movwf	_Distance+1	;volatile
  4084  031F                     l1771:	
  4085                           
  4086                           ;ADC.c: 91: if (adcRAW < 98 && adcRAW >= 90)
  4087  031F  3000               	movlw	0
  4088  0320  025D               	subwf	adcConvertMM@adcRAW+1,w
  4089  0321  3062               	movlw	98
  4090  0322  1903               	skipnz
  4091  0323  025C               	subwf	adcConvertMM@adcRAW,w
  4092  0324  1803               	skipnc
  4093  0325  2B5C               	goto	l1777
  4094  0326  3000               	movlw	0
  4095  0327  025D               	subwf	adcConvertMM@adcRAW+1,w
  4096  0328  305A               	movlw	90
  4097  0329  1903               	skipnz
  4098  032A  025C               	subwf	adcConvertMM@adcRAW,w
  4099  032B  1C03               	skipc
  4100  032C  2B5C               	goto	l1777
  4101                           
  4102                           ;ADC.c: 92: Distance = (((9800 - adcRAW*100)/8) + 1100 + 150);
  4103  032D  085D               	movf	adcConvertMM@adcRAW+1,w
  4104  032E  00C8               	movwf	___wmul@multiplier+1
  4105  032F  085C               	movf	adcConvertMM@adcRAW,w
  4106  0330  00C7               	movwf	___wmul@multiplier
  4107  0331  3064               	movlw	100
  4108  0332  00C9               	movwf	___wmul@multiplicand
  4109  0333  3000               	movlw	0
  4110  0334  00CA               	movwf	___wmul@multiplicand+1
  4111  0335  120A  158A  26F4  120A  118A  	fcall	___wmul
  4112  033A  1283               	bcf	3,5	;RP0=0, select bank0
  4113  033B  1303               	bcf	3,6	;RP1=0, select bank0
  4114  033C  0947               	comf	?___wmul,w
  4115  033D  00DE               	movwf	??_adcConvertMM
  4116  033E  0948               	comf	?___wmul+1,w
  4117  033F  00DF               	movwf	??_adcConvertMM+1
  4118  0340  0ADE               	incf	??_adcConvertMM,f
  4119  0341  1903               	skipnz
  4120  0342  0ADF               	incf	??_adcConvertMM+1,f
  4121  0343  085E               	movf	??_adcConvertMM,w
  4122  0344  3E48               	addlw	72
  4123  0345  00E0               	movwf	??_adcConvertMM+2
  4124  0346  085F               	movf	??_adcConvertMM+1,w
  4125  0347  1803               	skipnc
  4126  0348  3E01               	addlw	1
  4127  0349  3E26               	addlw	38
  4128  034A  00E1               	movwf	??_adcConvertMM+3
  4129  034B  1003               	clrc
  4130  034C  0CE1               	rrf	??_adcConvertMM+3,f
  4131  034D  0CE0               	rrf	??_adcConvertMM+2,f
  4132  034E  1003               	clrc
  4133  034F  0CE1               	rrf	??_adcConvertMM+3,f
  4134  0350  0CE0               	rrf	??_adcConvertMM+2,f
  4135  0351  1003               	clrc
  4136  0352  0CE1               	rrf	??_adcConvertMM+3,f
  4137  0353  0CE0               	rrf	??_adcConvertMM+2,f
  4138  0354  0860               	movf	??_adcConvertMM+2,w
  4139  0355  3EE2               	addlw	226
  4140  0356  00A0               	movwf	_Distance	;volatile
  4141  0357  0861               	movf	??_adcConvertMM+3,w
  4142  0358  1803               	skipnc
  4143  0359  3E01               	addlw	1
  4144  035A  3E04               	addlw	4
  4145  035B  00A1               	movwf	_Distance+1	;volatile
  4146  035C                     l1777:	
  4147                           
  4148                           ;ADC.c: 94: if(adcRAW < 90 || adcRAW >= 517)
  4149  035C  3000               	movlw	0
  4150  035D  025D               	subwf	adcConvertMM@adcRAW+1,w
  4151  035E  305A               	movlw	90
  4152  035F  1903               	skipnz
  4153  0360  025C               	subwf	adcConvertMM@adcRAW,w
  4154  0361  1C03               	skipc
  4155  0362  2B6A               	goto	l1781
  4156  0363  3002               	movlw	2
  4157  0364  025D               	subwf	adcConvertMM@adcRAW+1,w
  4158  0365  3005               	movlw	5
  4159  0366  1903               	skipnz
  4160  0367  025C               	subwf	adcConvertMM@adcRAW,w
  4161  0368  1C03               	skipc
  4162  0369  0008               	return
  4163  036A                     l1781:	
  4164                           
  4165                           ;ADC.c: 95: Distance = 0;
  4166  036A  01A0               	clrf	_Distance	;volatile
  4167  036B  01A1               	clrf	_Distance+1	;volatile
  4168  036C  0008               	return
  4169  036D                     __end_of_adcConvertMM:	
  4170                           ;ADC.c: 97: return(Distance);
  4171                           ;	Return value of _adcConvertMM is never used
  4172                           
  4173                           
  4174                           	psect	text20
  4175  0EF4                     __ptext20:	
  4176 ;; *************** function ___wmul *****************
  4177 ;; Defined at:
  4178 ;;		line 15 in file "C:\Program Files (x86)\Microchip\xc8\v1.38\sources\common\Umul16.c"
  4179 ;; Parameters:    Size  Location     Type
  4180 ;;  multiplier      2    0[BANK0 ] unsigned int 
  4181 ;;  multiplicand    2    2[BANK0 ] unsigned int 
  4182 ;; Auto vars:     Size  Location     Type
  4183 ;;  product         2    4[BANK0 ] unsigned int 
  4184 ;; Return value:  Size  Location     Type
  4185 ;;                  2    0[BANK0 ] unsigned int 
  4186 ;; Registers used:
  4187 ;;		wreg, status,2, status,0
  4188 ;; Tracked objects:
  4189 ;;		On entry : 0/0
  4190 ;;		On exit  : 0/0
  4191 ;;		Unchanged: 0/0
  4192 ;; Data sizes:     COMMON   BANK0   BANK1   BANK3   BANK2
  4193 ;;      Params:         0       4       0       0       0
  4194 ;;      Locals:         0       2       0       0       0
  4195 ;;      Temps:          0       0       0       0       0
  4196 ;;      Totals:         0       6       0       0       0
  4197 ;;Total ram usage:        6 bytes
  4198 ;; Hardware stack levels used:    1
  4199 ;; Hardware stack levels required when called:    2
  4200 ;; This function calls:
  4201 ;;		Nothing
  4202 ;; This function is called by:
  4203 ;;		_adcConvertMM
  4204 ;; This function uses a non-reentrant model
  4205 ;;
  4206                           
  4207                           
  4208                           ;psect for function ___wmul
  4209  0EF4                     ___wmul:	
  4210                           
  4211                           ;incstack = 0
  4212                           ; Regs used in ___wmul: [wreg+status,2+status,0]
  4213  0EF4  1283               	bcf	3,5	;RP0=0, select bank0
  4214  0EF5  1303               	bcf	3,6	;RP1=0, select bank0
  4215  0EF6  01CB               	clrf	___wmul@product
  4216  0EF7  01CC               	clrf	___wmul@product+1
  4217  0EF8                     l1563:	
  4218  0EF8  1C47               	btfss	___wmul@multiplier,0
  4219  0EF9  2F00               	goto	l577
  4220  0EFA  0849               	movf	___wmul@multiplicand,w
  4221  0EFB  07CB               	addwf	___wmul@product,f
  4222  0EFC  1803               	skipnc
  4223  0EFD  0ACC               	incf	___wmul@product+1,f
  4224  0EFE  084A               	movf	___wmul@multiplicand+1,w
  4225  0EFF  07CC               	addwf	___wmul@product+1,f
  4226  0F00                     l577:	
  4227  0F00  3001               	movlw	1
  4228  0F01                     u885:	
  4229  0F01  1003               	clrc
  4230  0F02  0DC9               	rlf	___wmul@multiplicand,f
  4231  0F03  0DCA               	rlf	___wmul@multiplicand+1,f
  4232  0F04  3EFF               	addlw	-1
  4233  0F05  1D03               	skipz
  4234  0F06  2F01               	goto	u885
  4235  0F07  3001               	movlw	1
  4236  0F08                     u895:	
  4237  0F08  1003               	clrc
  4238  0F09  0CC8               	rrf	___wmul@multiplier+1,f
  4239  0F0A  0CC7               	rrf	___wmul@multiplier,f
  4240  0F0B  3EFF               	addlw	-1
  4241  0F0C  1D03               	skipz
  4242  0F0D  2F08               	goto	u895
  4243  0F0E  0847               	movf	___wmul@multiplier,w
  4244  0F0F  0448               	iorwf	___wmul@multiplier+1,w
  4245  0F10  1D03               	btfss	3,2
  4246  0F11  2EF8               	goto	l1563
  4247  0F12  084C               	movf	___wmul@product+1,w
  4248  0F13  00C8               	movwf	?___wmul+1
  4249  0F14  084B               	movf	___wmul@product,w
  4250  0F15  00C7               	movwf	?___wmul
  4251  0F16  0008               	return
  4252  0F17                     __end_of___wmul:	
  4253                           
  4254                           	psect	text21
  4255  0FC2                     __ptext21:	
  4256 ;; *************** function ___lwdiv *****************
  4257 ;; Defined at:
  4258 ;;		line 6 in file "C:\Program Files (x86)\Microchip\xc8\v1.38\sources\common\lwdiv.c"
  4259 ;; Parameters:    Size  Location     Type
  4260 ;;  divisor         2    6[BANK0 ] unsigned int 
  4261 ;;  dividend        2    8[BANK0 ] unsigned int 
  4262 ;; Auto vars:     Size  Location     Type
  4263 ;;  quotient        2   11[BANK0 ] unsigned int 
  4264 ;;  counter         1   13[BANK0 ] unsigned char 
  4265 ;; Return value:  Size  Location     Type
  4266 ;;                  2    6[BANK0 ] unsigned int 
  4267 ;; Registers used:
  4268 ;;		wreg, status,2, status,0
  4269 ;; Tracked objects:
  4270 ;;		On entry : 0/0
  4271 ;;		On exit  : 0/0
  4272 ;;		Unchanged: 0/0
  4273 ;; Data sizes:     COMMON   BANK0   BANK1   BANK3   BANK2
  4274 ;;      Params:         0       4       0       0       0
  4275 ;;      Locals:         0       3       0       0       0
  4276 ;;      Temps:          0       1       0       0       0
  4277 ;;      Totals:         0       8       0       0       0
  4278 ;;Total ram usage:        8 bytes
  4279 ;; Hardware stack levels used:    1
  4280 ;; Hardware stack levels required when called:    2
  4281 ;; This function calls:
  4282 ;;		Nothing
  4283 ;; This function is called by:
  4284 ;;		_adcConvertMM
  4285 ;; This function uses a non-reentrant model
  4286 ;;
  4287                           
  4288                           
  4289                           ;psect for function ___lwdiv
  4290  0FC2                     ___lwdiv:	
  4291                           
  4292                           ;incstack = 0
  4293                           ; Regs used in ___lwdiv: [wreg+status,2+status,0]
  4294  0FC2  1283               	bcf	3,5	;RP0=0, select bank0
  4295  0FC3  1303               	bcf	3,6	;RP1=0, select bank0
  4296  0FC4  01D2               	clrf	___lwdiv@quotient
  4297  0FC5  01D3               	clrf	___lwdiv@quotient+1
  4298  0FC6  084D               	movf	___lwdiv@divisor,w
  4299  0FC7  044E               	iorwf	___lwdiv@divisor+1,w
  4300  0FC8  1903               	btfsc	3,2
  4301  0FC9  2FFB               	goto	l1637
  4302  0FCA  01D4               	clrf	___lwdiv@counter
  4303  0FCB  0AD4               	incf	___lwdiv@counter,f
  4304  0FCC                     l1625:	
  4305  0FCC  1BCE               	btfsc	___lwdiv@divisor+1,7
  4306  0FCD  2FDA               	goto	l1627
  4307  0FCE  3001               	movlw	1
  4308  0FCF                     u1025:	
  4309  0FCF  1003               	clrc
  4310  0FD0  0DCD               	rlf	___lwdiv@divisor,f
  4311  0FD1  0DCE               	rlf	___lwdiv@divisor+1,f
  4312  0FD2  3EFF               	addlw	-1
  4313  0FD3  1D03               	skipz
  4314  0FD4  2FCF               	goto	u1025
  4315  0FD5  3001               	movlw	1
  4316  0FD6  00D1               	movwf	??___lwdiv
  4317  0FD7  0851               	movf	??___lwdiv,w
  4318  0FD8  07D4               	addwf	___lwdiv@counter,f
  4319  0FD9  2FCC               	goto	l1625
  4320  0FDA                     l1627:	
  4321  0FDA  3001               	movlw	1
  4322  0FDB                     u1045:	
  4323  0FDB  1003               	clrc
  4324  0FDC  0DD2               	rlf	___lwdiv@quotient,f
  4325  0FDD  0DD3               	rlf	___lwdiv@quotient+1,f
  4326  0FDE  3EFF               	addlw	-1
  4327  0FDF  1D03               	skipz
  4328  0FE0  2FDB               	goto	u1045
  4329  0FE1  084E               	movf	___lwdiv@divisor+1,w
  4330  0FE2  0250               	subwf	___lwdiv@dividend+1,w
  4331  0FE3  1D03               	skipz
  4332  0FE4  2FE7               	goto	u1055
  4333  0FE5  084D               	movf	___lwdiv@divisor,w
  4334  0FE6  024F               	subwf	___lwdiv@dividend,w
  4335  0FE7                     u1055:	
  4336  0FE7  1C03               	skipc
  4337  0FE8  2FF0               	goto	l1633
  4338  0FE9  084D               	movf	___lwdiv@divisor,w
  4339  0FEA  02CF               	subwf	___lwdiv@dividend,f
  4340  0FEB  084E               	movf	___lwdiv@divisor+1,w
  4341  0FEC  1C03               	skipc
  4342  0FED  03D0               	decf	___lwdiv@dividend+1,f
  4343  0FEE  02D0               	subwf	___lwdiv@dividend+1,f
  4344  0FEF  1452               	bsf	___lwdiv@quotient,0
  4345  0FF0                     l1633:	
  4346  0FF0  3001               	movlw	1
  4347  0FF1                     u1065:	
  4348  0FF1  1003               	clrc
  4349  0FF2  0CCE               	rrf	___lwdiv@divisor+1,f
  4350  0FF3  0CCD               	rrf	___lwdiv@divisor,f
  4351  0FF4  3EFF               	addlw	-1
  4352  0FF5  1D03               	skipz
  4353  0FF6  2FF1               	goto	u1065
  4354  0FF7  3001               	movlw	1
  4355  0FF8  02D4               	subwf	___lwdiv@counter,f
  4356  0FF9  1D03               	btfss	3,2
  4357  0FFA  2FDA               	goto	l1627
  4358  0FFB                     l1637:	
  4359  0FFB  0853               	movf	___lwdiv@quotient+1,w
  4360  0FFC  00CE               	movwf	?___lwdiv+1
  4361  0FFD  0852               	movf	___lwdiv@quotient,w
  4362  0FFE  00CD               	movwf	?___lwdiv
  4363  0FFF  0008               	return
  4364  1000                     __end_of___lwdiv:	
  4365                           
  4366                           	psect	text22
  4367  0613                     __ptext22:	
  4368 ;; *************** function ___aldiv *****************
  4369 ;; Defined at:
  4370 ;;		line 6 in file "C:\Program Files (x86)\Microchip\xc8\v1.38\sources\common\aldiv.c"
  4371 ;; Parameters:    Size  Location     Type
  4372 ;;  divisor         4    6[BANK0 ] long 
  4373 ;;  dividend        4   10[BANK0 ] long 
  4374 ;; Auto vars:     Size  Location     Type
  4375 ;;  quotient        4   17[BANK0 ] long 
  4376 ;;  sign            1   16[BANK0 ] unsigned char 
  4377 ;;  counter         1   15[BANK0 ] unsigned char 
  4378 ;; Return value:  Size  Location     Type
  4379 ;;                  4    6[BANK0 ] long 
  4380 ;; Registers used:
  4381 ;;		wreg, status,2, status,0
  4382 ;; Tracked objects:
  4383 ;;		On entry : 0/0
  4384 ;;		On exit  : 0/0
  4385 ;;		Unchanged: 0/0
  4386 ;; Data sizes:     COMMON   BANK0   BANK1   BANK3   BANK2
  4387 ;;      Params:         0       8       0       0       0
  4388 ;;      Locals:         0       6       0       0       0
  4389 ;;      Temps:          0       1       0       0       0
  4390 ;;      Totals:         0      15       0       0       0
  4391 ;;Total ram usage:       15 bytes
  4392 ;; Hardware stack levels used:    1
  4393 ;; Hardware stack levels required when called:    2
  4394 ;; This function calls:
  4395 ;;		Nothing
  4396 ;; This function is called by:
  4397 ;;		_adcConvertMM
  4398 ;; This function uses a non-reentrant model
  4399 ;;
  4400                           
  4401                           
  4402                           ;psect for function ___aldiv
  4403  0613                     ___aldiv:	
  4404                           
  4405                           ;incstack = 0
  4406                           ; Regs used in ___aldiv: [wreg+status,2+status,0]
  4407  0613  1283               	bcf	3,5	;RP0=0, select bank0
  4408  0614  1303               	bcf	3,6	;RP1=0, select bank0
  4409  0615  01D7               	clrf	___aldiv@sign
  4410  0616  1FD0               	btfss	___aldiv@divisor+3,7
  4411  0617  2E25               	goto	l632
  4412  0618  09CD               	comf	___aldiv@divisor,f
  4413  0619  09CE               	comf	___aldiv@divisor+1,f
  4414  061A  09CF               	comf	___aldiv@divisor+2,f
  4415  061B  09D0               	comf	___aldiv@divisor+3,f
  4416  061C  0ACD               	incf	___aldiv@divisor,f
  4417  061D  1903               	skipnz
  4418  061E  0ACE               	incf	___aldiv@divisor+1,f
  4419  061F  1903               	skipnz
  4420  0620  0ACF               	incf	___aldiv@divisor+2,f
  4421  0621  1903               	skipnz
  4422  0622  0AD0               	incf	___aldiv@divisor+3,f
  4423  0623  01D7               	clrf	___aldiv@sign
  4424  0624  0AD7               	incf	___aldiv@sign,f
  4425  0625                     l632:	
  4426  0625  1FD4               	btfss	___aldiv@dividend+3,7
  4427  0626  2E36               	goto	l1585
  4428  0627  09D1               	comf	___aldiv@dividend,f
  4429  0628  09D2               	comf	___aldiv@dividend+1,f
  4430  0629  09D3               	comf	___aldiv@dividend+2,f
  4431  062A  09D4               	comf	___aldiv@dividend+3,f
  4432  062B  0AD1               	incf	___aldiv@dividend,f
  4433  062C  1903               	skipnz
  4434  062D  0AD2               	incf	___aldiv@dividend+1,f
  4435  062E  1903               	skipnz
  4436  062F  0AD3               	incf	___aldiv@dividend+2,f
  4437  0630  1903               	skipnz
  4438  0631  0AD4               	incf	___aldiv@dividend+3,f
  4439  0632  3001               	movlw	1
  4440  0633  00D5               	movwf	??___aldiv
  4441  0634  0855               	movf	??___aldiv,w
  4442  0635  06D7               	xorwf	___aldiv@sign,f
  4443  0636                     l1585:	
  4444  0636  3000               	movlw	0
  4445  0637  00DB               	movwf	___aldiv@quotient+3
  4446  0638  3000               	movlw	0
  4447  0639  00DA               	movwf	___aldiv@quotient+2
  4448  063A  3000               	movlw	0
  4449  063B  00D9               	movwf	___aldiv@quotient+1
  4450  063C  3000               	movlw	0
  4451  063D  00D8               	movwf	___aldiv@quotient
  4452  063E  0850               	movf	___aldiv@divisor+3,w
  4453  063F  044F               	iorwf	___aldiv@divisor+2,w
  4454  0640  044E               	iorwf	___aldiv@divisor+1,w
  4455  0641  044D               	iorwf	___aldiv@divisor,w
  4456  0642  1903               	skipnz
  4457  0643  2E8B               	goto	l1607
  4458  0644  01D6               	clrf	___aldiv@counter
  4459  0645  0AD6               	incf	___aldiv@counter,f
  4460  0646                     l1593:	
  4461  0646  1BD0               	btfsc	___aldiv@divisor+3,7
  4462  0647  2E56               	goto	l1595
  4463  0648  3001               	movlw	1
  4464  0649  00D5               	movwf	??___aldiv
  4465  064A                     u945:	
  4466  064A  1003               	clrc
  4467  064B  0DCD               	rlf	___aldiv@divisor,f
  4468  064C  0DCE               	rlf	___aldiv@divisor+1,f
  4469  064D  0DCF               	rlf	___aldiv@divisor+2,f
  4470  064E  0DD0               	rlf	___aldiv@divisor+3,f
  4471  064F  0BD5               	decfsz	??___aldiv,f
  4472  0650  2E4A               	goto	u945
  4473  0651  3001               	movlw	1
  4474  0652  00D5               	movwf	??___aldiv
  4475  0653  0855               	movf	??___aldiv,w
  4476  0654  07D6               	addwf	___aldiv@counter,f
  4477  0655  2E46               	goto	l1593
  4478  0656                     l1595:	
  4479  0656  3001               	movlw	1
  4480  0657  00D5               	movwf	??___aldiv
  4481  0658                     u965:	
  4482  0658  1003               	clrc
  4483  0659  0DD8               	rlf	___aldiv@quotient,f
  4484  065A  0DD9               	rlf	___aldiv@quotient+1,f
  4485  065B  0DDA               	rlf	___aldiv@quotient+2,f
  4486  065C  0DDB               	rlf	___aldiv@quotient+3,f
  4487  065D  0BD5               	decfsz	??___aldiv,f
  4488  065E  2E58               	goto	u965
  4489  065F  0850               	movf	___aldiv@divisor+3,w
  4490  0660  0254               	subwf	___aldiv@dividend+3,w
  4491  0661  1D03               	skipz
  4492  0662  2E6D               	goto	u975
  4493  0663  084F               	movf	___aldiv@divisor+2,w
  4494  0664  0253               	subwf	___aldiv@dividend+2,w
  4495  0665  1D03               	skipz
  4496  0666  2E6D               	goto	u975
  4497  0667  084E               	movf	___aldiv@divisor+1,w
  4498  0668  0252               	subwf	___aldiv@dividend+1,w
  4499  0669  1D03               	skipz
  4500  066A  2E6D               	goto	u975
  4501  066B  084D               	movf	___aldiv@divisor,w
  4502  066C  0251               	subwf	___aldiv@dividend,w
  4503  066D                     u975:	
  4504  066D  1C03               	skipc
  4505  066E  2E7E               	goto	l1603
  4506  066F  084D               	movf	___aldiv@divisor,w
  4507  0670  02D1               	subwf	___aldiv@dividend,f
  4508  0671  084E               	movf	___aldiv@divisor+1,w
  4509  0672  1C03               	skipc
  4510  0673  0F4E               	incfsz	___aldiv@divisor+1,w
  4511  0674  02D2               	subwf	___aldiv@dividend+1,f
  4512  0675  084F               	movf	___aldiv@divisor+2,w
  4513  0676  1C03               	skipc
  4514  0677  0F4F               	incfsz	___aldiv@divisor+2,w
  4515  0678  02D3               	subwf	___aldiv@dividend+2,f
  4516  0679  0850               	movf	___aldiv@divisor+3,w
  4517  067A  1C03               	skipc
  4518  067B  0F50               	incfsz	___aldiv@divisor+3,w
  4519  067C  02D4               	subwf	___aldiv@dividend+3,f
  4520  067D  1458               	bsf	___aldiv@quotient,0
  4521  067E                     l1603:	
  4522  067E  3001               	movlw	1
  4523  067F                     u985:	
  4524  067F  1003               	clrc
  4525  0680  0CD0               	rrf	___aldiv@divisor+3,f
  4526  0681  0CCF               	rrf	___aldiv@divisor+2,f
  4527  0682  0CCE               	rrf	___aldiv@divisor+1,f
  4528  0683  0CCD               	rrf	___aldiv@divisor,f
  4529  0684  3EFF               	addlw	-1
  4530  0685  1D03               	skipz
  4531  0686  2E7F               	goto	u985
  4532  0687  3001               	movlw	1
  4533  0688  02D6               	subwf	___aldiv@counter,f
  4534  0689  1D03               	btfss	3,2
  4535  068A  2E56               	goto	l1595
  4536  068B                     l1607:	
  4537  068B  0857               	movf	___aldiv@sign,w
  4538  068C  1903               	btfsc	3,2
  4539  068D  2E99               	goto	l1611
  4540  068E  09D8               	comf	___aldiv@quotient,f
  4541  068F  09D9               	comf	___aldiv@quotient+1,f
  4542  0690  09DA               	comf	___aldiv@quotient+2,f
  4543  0691  09DB               	comf	___aldiv@quotient+3,f
  4544  0692  0AD8               	incf	___aldiv@quotient,f
  4545  0693  1903               	skipnz
  4546  0694  0AD9               	incf	___aldiv@quotient+1,f
  4547  0695  1903               	skipnz
  4548  0696  0ADA               	incf	___aldiv@quotient+2,f
  4549  0697  1903               	skipnz
  4550  0698  0ADB               	incf	___aldiv@quotient+3,f
  4551  0699                     l1611:	
  4552  0699  085B               	movf	___aldiv@quotient+3,w
  4553  069A  00D0               	movwf	?___aldiv+3
  4554  069B  085A               	movf	___aldiv@quotient+2,w
  4555  069C  00CF               	movwf	?___aldiv+2
  4556  069D  0859               	movf	___aldiv@quotient+1,w
  4557  069E  00CE               	movwf	?___aldiv+1
  4558  069F  0858               	movf	___aldiv@quotient,w
  4559  06A0  00CD               	movwf	?___aldiv
  4560  06A1  0008               	return
  4561  06A2                     __end_of___aldiv:	
  4562                           
  4563                           	psect	text23
  4564  0735                     __ptext23:	
  4565 ;; *************** function _isr *****************
  4566 ;; Defined at:
  4567 ;;		line 26 in file "main.c"
  4568 ;; Parameters:    Size  Location     Type
  4569 ;;		None
  4570 ;; Auto vars:     Size  Location     Type
  4571 ;;		None
  4572 ;; Return value:  Size  Location     Type
  4573 ;;                  1    wreg      void 
  4574 ;; Registers used:
  4575 ;;		wreg, status,2, status,0, pclath, cstack
  4576 ;; Tracked objects:
  4577 ;;		On entry : 0/0
  4578 ;;		On exit  : 0/0
  4579 ;;		Unchanged: 0/0
  4580 ;; Data sizes:     COMMON   BANK0   BANK1   BANK3   BANK2
  4581 ;;      Params:         0       0       0       0       0
  4582 ;;      Locals:         0       0       0       0       0
  4583 ;;      Temps:          5       0       0       0       0
  4584 ;;      Totals:         5       0       0       0       0
  4585 ;;Total ram usage:        5 bytes
  4586 ;; Hardware stack levels used:    1
  4587 ;; Hardware stack levels required when called:    1
  4588 ;; This function calls:
  4589 ;;		___lwmod
  4590 ;; This function is called by:
  4591 ;;		Interrupt level 1
  4592 ;; This function uses a non-reentrant model
  4593 ;;
  4594                           
  4595                           
  4596                           ;psect for function _isr
  4597  0735                     _isr:	
  4598                           
  4599                           ;main.c: 28: if(TMR0IF){
  4600  0735  1D0B               	btfss	11,2	;volatile
  4601  0736  2F70               	goto	i1l119
  4602                           
  4603                           ;main.c: 29: TMR0IF = 0;
  4604  0737  110B               	bcf	11,2	;volatile
  4605                           
  4606                           ;main.c: 30: TMR0 = 100;
  4607  0738  3064               	movlw	100
  4608  0739  0081               	movwf	1	;volatile
  4609                           
  4610                           ;main.c: 33: if(time_count % 1 == 0) {
  4611  073A  3001               	movlw	1
  4612  073B  07B0               	addwf	_time_count,f	;volatile
  4613  073C  1803               	skipnc
  4614  073D  0AB1               	incf	_time_count+1,f	;volatile
  4615  073E  3000               	movlw	0
  4616  073F  07B1               	addwf	_time_count+1,f	;volatile
  4617                           
  4618                           ;main.c: 35: RC2 = 1; __nop(); RC2 = 0;;
  4619  0740  1507               	bsf	7,2	;volatile
  4620  0741  0000               	nop
  4621  0742  1283               	bcf	3,5	;RP0=0, select bank0
  4622  0743  1303               	bcf	3,6	;RP1=0, select bank0
  4623  0744  1107               	bcf	7,2	;volatile
  4624                           
  4625                           ;main.c: 36: }
  4626                           ;main.c: 38: if(time_count % 1000 == 0){
  4627  0745  30E8               	movlw	232
  4628  0746  00F0               	movwf	___lwmod@divisor
  4629  0747  3003               	movlw	3
  4630  0748  00F1               	movwf	___lwmod@divisor+1
  4631  0749  0831               	movf	_time_count+1,w	;volatile
  4632  074A  00F3               	movwf	___lwmod@dividend+1
  4633  074B  0830               	movf	_time_count,w	;volatile
  4634  074C  00F2               	movwf	___lwmod@dividend
  4635  074D  120A  158A  2790  120A  118A  	fcall	___lwmod
  4636  0752  0870               	movf	?___lwmod,w
  4637  0753  0471               	iorwf	?___lwmod+1,w
  4638  0754  1D03               	btfss	3,2
  4639  0755  2F5C               	goto	i1l2007
  4640                           
  4641                           ;main.c: 39: RB4 = !RB4;
  4642  0756  3010               	movlw	16
  4643  0757  1283               	bcf	3,5	;RP0=0, select bank0
  4644  0758  1303               	bcf	3,6	;RP1=0, select bank0
  4645  0759  0686               	xorwf	6,f
  4646                           
  4647                           ;main.c: 41: time_count = 0;
  4648  075A  01B0               	clrf	_time_count	;volatile
  4649  075B  01B1               	clrf	_time_count+1	;volatile
  4650  075C                     i1l2007:	
  4651                           
  4652                           ;main.c: 42: }
  4653                           ;main.c: 44: if (!RB0 == 1)
  4654  075C  1283               	bcf	3,5	;RP0=0, select bank0
  4655  075D  1303               	bcf	3,6	;RP1=0, select bank0
  4656  075E  1806               	btfsc	6,0	;volatile
  4657  075F  2F64               	goto	i1l2011
  4658                           
  4659                           ;main.c: 45: PB8Counter++;
  4660  0760  3001               	movlw	1
  4661  0761  00F6               	movwf	??_isr
  4662  0762  0876               	movf	??_isr,w
  4663  0763  07BA               	addwf	_PB8Counter,f
  4664  0764                     i1l2011:	
  4665                           
  4666                           ;main.c: 46: if (!RB1 == 1)
  4667  0764  1886               	btfsc	6,1	;volatile
  4668  0765  2F6A               	goto	i1l2015
  4669                           
  4670                           ;main.c: 47: PB7Counter++;
  4671  0766  3001               	movlw	1
  4672  0767  00F6               	movwf	??_isr
  4673  0768  0876               	movf	??_isr,w
  4674  0769  07B9               	addwf	_PB7Counter,f
  4675  076A                     i1l2015:	
  4676                           
  4677                           ;main.c: 48: if (!RB2 == 1)
  4678  076A  1906               	btfsc	6,2	;volatile
  4679  076B  2F70               	goto	i1l119
  4680                           
  4681                           ;main.c: 49: PB6Counter++;
  4682  076C  3001               	movlw	1
  4683  076D  00F6               	movwf	??_isr
  4684  076E  0876               	movf	??_isr,w
  4685  076F  07B8               	addwf	_PB6Counter,f
  4686  0770                     i1l119:	
  4687  0770  087A               	movf	??_isr+4,w
  4688  0771  00FF               	movwf	127
  4689  0772  0879               	movf	??_isr+3,w
  4690  0773  008A               	movwf	10
  4691  0774  0878               	movf	??_isr+2,w
  4692  0775  0084               	movwf	4
  4693  0776  0E77               	swapf	(??_isr+1)^(0+-128),w
  4694  0777  0083               	movwf	3
  4695  0778  0EFE               	swapf	126,f
  4696  0779  0E7E               	swapf	126,w
  4697  077A  0009               	retfie
  4698  077B                     __end_of_isr:	
  4699                           
  4700                           	psect	intentry
  4701  0004                     __pintentry:	
  4702                           ;incstack = 0
  4703                           ; Regs used in _isr: [wreg+status,2+status,0+pclath+cstack]
  4704                           
  4705  0004                     interrupt_function:	
  4706  007E                     saved_w	set	btemp
  4707  0004  00FE               	movwf	btemp
  4708  0005  0E03               	swapf	3,w
  4709  0006  00F7               	movwf	??_isr+1
  4710  0007  0804               	movf	4,w
  4711  0008  00F8               	movwf	??_isr+2
  4712  0009  080A               	movf	10,w
  4713  000A  00F9               	movwf	??_isr+3
  4714  000B  1283               	bcf	3,5	;RP0=0, select bank0
  4715  000C  1303               	bcf	3,6	;RP1=0, select bank0
  4716  000D  087F               	movf	btemp+1,w
  4717  000E  00FA               	movwf	??_isr+4
  4718  000F  120A  118A  2F35   	ljmp	_isr
  4719                           
  4720                           	psect	text24
  4721  0F90                     __ptext24:	
  4722 ;; *************** function ___lwmod *****************
  4723 ;; Defined at:
  4724 ;;		line 6 in file "C:\Program Files (x86)\Microchip\xc8\v1.38\sources\common\lwmod.c"
  4725 ;; Parameters:    Size  Location     Type
  4726 ;;  divisor         2    0[COMMON] unsigned int 
  4727 ;;  dividend        2    2[COMMON] unsigned int 
  4728 ;; Auto vars:     Size  Location     Type
  4729 ;;  counter         1    5[COMMON] unsigned char 
  4730 ;; Return value:  Size  Location     Type
  4731 ;;                  2    0[COMMON] unsigned int 
  4732 ;; Registers used:
  4733 ;;		wreg, status,2, status,0
  4734 ;; Tracked objects:
  4735 ;;		On entry : 0/0
  4736 ;;		On exit  : 0/0
  4737 ;;		Unchanged: 0/0
  4738 ;; Data sizes:     COMMON   BANK0   BANK1   BANK3   BANK2
  4739 ;;      Params:         4       0       0       0       0
  4740 ;;      Locals:         1       0       0       0       0
  4741 ;;      Temps:          1       0       0       0       0
  4742 ;;      Totals:         6       0       0       0       0
  4743 ;;Total ram usage:        6 bytes
  4744 ;; Hardware stack levels used:    1
  4745 ;; This function calls:
  4746 ;;		Nothing
  4747 ;; This function is called by:
  4748 ;;		_isr
  4749 ;; This function uses a non-reentrant model
  4750 ;;
  4751                           
  4752                           
  4753                           ;psect for function ___lwmod
  4754  0F90                     ___lwmod:	
  4755                           
  4756                           ;incstack = 0
  4757                           ; Regs used in ___lwmod: [wreg+status,2+status,0]
  4758  0F90  0870               	movf	___lwmod@divisor,w
  4759  0F91  0471               	iorwf	___lwmod@divisor+1,w
  4760  0F92  1903               	btfsc	3,2
  4761  0F93  2FBD               	goto	i1l1985
  4762  0F94  01F5               	clrf	___lwmod@counter
  4763  0F95  0AF5               	incf	___lwmod@counter,f
  4764  0F96                     i1l1975:	
  4765  0F96  1BF1               	btfsc	___lwmod@divisor+1,7
  4766  0F97  2FA4               	goto	i1l1977
  4767  0F98  3001               	movlw	1
  4768  0F99                     u149_25:	
  4769  0F99  1003               	clrc
  4770  0F9A  0DF0               	rlf	___lwmod@divisor,f
  4771  0F9B  0DF1               	rlf	___lwmod@divisor+1,f
  4772  0F9C  3EFF               	addlw	-1
  4773  0F9D  1D03               	skipz
  4774  0F9E  2F99               	goto	u149_25
  4775  0F9F  3001               	movlw	1
  4776  0FA0  00F4               	movwf	??___lwmod
  4777  0FA1  0874               	movf	??___lwmod,w
  4778  0FA2  07F5               	addwf	___lwmod@counter,f
  4779  0FA3  2F96               	goto	i1l1975
  4780  0FA4                     i1l1977:	
  4781  0FA4  0871               	movf	___lwmod@divisor+1,w
  4782  0FA5  0273               	subwf	___lwmod@dividend+1,w
  4783  0FA6  1D03               	skipz
  4784  0FA7  2FAA               	goto	u151_25
  4785  0FA8  0870               	movf	___lwmod@divisor,w
  4786  0FA9  0272               	subwf	___lwmod@dividend,w
  4787  0FAA                     u151_25:	
  4788  0FAA  1C03               	skipc
  4789  0FAB  2FB2               	goto	i1l1981
  4790  0FAC  0870               	movf	___lwmod@divisor,w
  4791  0FAD  02F2               	subwf	___lwmod@dividend,f
  4792  0FAE  0871               	movf	___lwmod@divisor+1,w
  4793  0FAF  1C03               	skipc
  4794  0FB0  03F3               	decf	___lwmod@dividend+1,f
  4795  0FB1  02F3               	subwf	___lwmod@dividend+1,f
  4796  0FB2                     i1l1981:	
  4797  0FB2  3001               	movlw	1
  4798  0FB3                     u152_25:	
  4799  0FB3  1003               	clrc
  4800  0FB4  0CF1               	rrf	___lwmod@divisor+1,f
  4801  0FB5  0CF0               	rrf	___lwmod@divisor,f
  4802  0FB6  3EFF               	addlw	-1
  4803  0FB7  1D03               	skipz
  4804  0FB8  2FB3               	goto	u152_25
  4805  0FB9  3001               	movlw	1
  4806  0FBA  02F5               	subwf	___lwmod@counter,f
  4807  0FBB  1D03               	btfss	3,2
  4808  0FBC  2FA4               	goto	i1l1977
  4809  0FBD                     i1l1985:	
  4810  0FBD  0873               	movf	___lwmod@dividend+1,w
  4811  0FBE  00F1               	movwf	?___lwmod+1
  4812  0FBF  0872               	movf	___lwmod@dividend,w
  4813  0FC0  00F0               	movwf	?___lwmod
  4814  0FC1  0008               	return
  4815  0FC2                     __end_of___lwmod:	
  4816  007E                     btemp	set	126	;btemp
  4817  007E                     wtemp	set	126
  4818  007E                     wtemp0	set	126
  4819  0080                     wtemp1	set	128
  4820  0082                     wtemp2	set	130
  4821  0084                     wtemp3	set	132
  4822  0086                     wtemp4	set	134
  4823  0088                     wtemp5	set	136
  4824  007F                     wtemp6	set	127
  4825  007E                     ttemp	set	126
  4826  007E                     ttemp0	set	126
  4827  0081                     ttemp1	set	129
  4828  0084                     ttemp2	set	132
  4829  0087                     ttemp3	set	135
  4830  007F                     ttemp4	set	127
  4831  007E                     ltemp	set	126
  4832  007E                     ltemp0	set	126
  4833  0082                     ltemp1	set	130
  4834  0086                     ltemp2	set	134
  4835  0080                     ltemp3	set	128


Data Sizes:
    Strings     0
    Constant    0
    Data        2
    BSS         41
    Persistent  0
    Stack       0

Auto Spaces:
    Space          Size  Autos    Used
    COMMON           14     11      14
    BANK0            80     35      76
    BANK1            80      0       0
    BANK3            96      0       0
    BANK2            96      0       0

Pointer List with Targets:

    None.

Critical Paths under _main in COMMON

    None.

Critical Paths under _isr in COMMON

    _isr->___lwmod

Critical Paths under _main in BANK0

    _setupLCD->_lcdWriteControl
    _getSensorData->_ser_getch
    _DriveDirect->_ser_putch
    _Drive->_ser_putch
    _ADCMain->_adcConvertMM
    _lcdWriteToDigitBCD->_lcdWriteData
    _lcdSetCursor->_lcdWriteControl
    _adcConvertMM->___aldiv
    ___lwdiv->___wmul
    ___aldiv->___wmul

Critical Paths under _isr in BANK0

    None.

Critical Paths under _main in BANK1

    None.

Critical Paths under _isr in BANK1

    None.

Critical Paths under _main in BANK3

    None.

Critical Paths under _isr in BANK3

    None.

Critical Paths under _main in BANK2

    None.

Critical Paths under _isr in BANK2

    None.

Call Graph Tables:

 ---------------------------------------------------------------------------------
 (Depth) Function   	        Calls       Base Space   Used Autos Params    Refs
 ---------------------------------------------------------------------------------
 (0) _main                                                 4     4      0    6592
                                             31 BANK0      4     4      0
                            _ADCMain
                              _Drive
                        _DriveDirect
                      _getSensorData
                       _lcdSetCursor
                 _lcdWriteToDigitBCD
                            _moveCCW
                             _moveCW
                           _ser_init
                          _ser_putch
                           _setupADC
                           _setupLCD
                           _setupSPI
                       _spi_transfer
 ---------------------------------------------------------------------------------
 (1) _spi_transfer                                         3     3      0      30
                                              0 BANK0      3     3      0
 ---------------------------------------------------------------------------------
 (1) _setupSPI                                             0     0      0       0
 ---------------------------------------------------------------------------------
 (1) _setupLCD                                             0     0      0      22
                    _lcdWriteControl
 ---------------------------------------------------------------------------------
 (1) _setupADC                                             1     1      0       0
                                              0 BANK0      1     1      0
 ---------------------------------------------------------------------------------
 (1) _ser_init                                             0     0      0       0
 ---------------------------------------------------------------------------------
 (1) _moveCW                                               2     2      0       0
                                              0 BANK0      2     2      0
 ---------------------------------------------------------------------------------
 (1) _moveCCW                                              2     2      0       0
                                              0 BANK0      2     2      0
 ---------------------------------------------------------------------------------
 (1) _getSensorData                                        7     5      2     430
                                              2 BANK0      7     5      2
                          _ser_getch
                          _ser_putch
 ---------------------------------------------------------------------------------
 (2) _ser_getch                                            2     2      0      23
                                              0 BANK0      2     2      0
 ---------------------------------------------------------------------------------
 (1) _DriveDirect                                          4     1      3     746
                                              1 BANK0      4     1      3
                          _ser_putch
 ---------------------------------------------------------------------------------
 (1) _Drive                                                4     1      3     428
                                              1 BANK0      4     1      3
                          _ser_putch
 ---------------------------------------------------------------------------------
 (1) _ser_putch                                            1     1      0      22
                                              0 BANK0      1     1      0
 ---------------------------------------------------------------------------------
 (1) _ADCMain                                              0     0      0    4247
                       _adcConvertMM
                             _getADC
                       _lcdSetCursor
                 _lcdWriteToDigitBCD
 ---------------------------------------------------------------------------------
 (1) _lcdWriteToDigitBCD                                  12    10      2     599
                                              3 BANK0     12    10      2
                       _lcdWriteData
 ---------------------------------------------------------------------------------
 (2) _lcdWriteData                                         3     3      0      22
                                              0 BANK0      3     3      0
 ---------------------------------------------------------------------------------
 (1) _lcdSetCursor                                         1     1      0      45
                                              3 BANK0      1     1      0
                    _lcdWriteControl
 ---------------------------------------------------------------------------------
 (2) _lcdWriteControl                                      3     3      0      22
                                              0 BANK0      3     3      0
 ---------------------------------------------------------------------------------
 (2) _getADC                                               2     2      0       0
                                              0 BANK0      2     2      0
 ---------------------------------------------------------------------------------
 (2) _adcConvertMM                                        10     8      2    3603
                                             21 BANK0     10     8      2
                            ___aldiv
                            ___lwdiv
                             ___wmul
 ---------------------------------------------------------------------------------
 (3) ___wmul                                               6     2      4    1258
                                              0 BANK0      6     2      4
 ---------------------------------------------------------------------------------
 (3) ___lwdiv                                              8     4      4     904
                                              6 BANK0      8     4      4
                             ___wmul (ARG)
 ---------------------------------------------------------------------------------
 (3) ___aldiv                                             15     7      8     618
                                              6 BANK0     15     7      8
                             ___wmul (ARG)
 ---------------------------------------------------------------------------------
 Estimated maximum stack depth 3
 ---------------------------------------------------------------------------------
 (Depth) Function   	        Calls       Base Space   Used Autos Params    Refs
 ---------------------------------------------------------------------------------
 (4) _isr                                                  5     5      0     265
                                              6 COMMON     5     5      0
                            ___lwmod
 ---------------------------------------------------------------------------------
 (5) ___lwmod                                              6     2      4     265
                                              0 COMMON     6     2      4
 ---------------------------------------------------------------------------------
 Estimated maximum stack depth 5
 ---------------------------------------------------------------------------------

 Call Graph Graphs:

 _main (ROOT)
   _ADCMain
     _adcConvertMM
       ___aldiv
         ___wmul (ARG)
       ___lwdiv
         ___wmul (ARG)
       ___wmul
     _getADC
     _lcdSetCursor
       _lcdWriteControl
     _lcdWriteToDigitBCD
       _lcdWriteData
   _Drive
     _ser_putch
   _DriveDirect
     _ser_putch
   _getSensorData
     _ser_getch
     _ser_putch
   _lcdSetCursor
     _lcdWriteControl
   _lcdWriteToDigitBCD
     _lcdWriteData
   _moveCCW
   _moveCW
   _ser_init
   _ser_putch
   _setupADC
   _setupLCD
     _lcdWriteControl
   _setupSPI
   _spi_transfer

 _isr (ROOT)
   ___lwmod

 Address spaces:
Name               Size   Autos  Total    Cost      Usage
BANK3               60      0       0       9        0.0%
BITBANK3            60      0       0       8        0.0%
SFR3                 0      0       0       4        0.0%
BITSFR3              0      0       0       4        0.0%
BANK2               60      0       0      11        0.0%
BITBANK2            60      0       0      10        0.0%
SFR2                 0      0       0       5        0.0%
BITSFR2              0      0       0       5        0.0%
BANK1               50      0       0       7        0.0%
BITBANK1            50      0       0       6        0.0%
SFR1                 0      0       0       2        0.0%
BITSFR1              0      0       0       2        0.0%
BANK0               50     23      4C       5       95.0%
BITBANK0            50      0       0       4        0.0%
SFR0                 0      0       0       1        0.0%
BITSFR0              0      0       0       1        0.0%
COMMON               E      B       E       1      100.0%
BITCOMMON            E      0       1       0        7.1%
CODE                 0      0       0       0        0.0%
DATA                 0      0      5A      12        0.0%
ABS                  0      0      5A       3        0.0%
NULL                 0      0       0       0        0.0%
STACK                0      0       0       2        0.0%
EEDATA             100      0       0       0        0.0%


Microchip Technology PIC Macro Assembler V1.38 build -256452561 
Symbol Table                                                                                   Thu Sep 08 20:58:33 2016

               ??_getSensorData 004B                     __CFG_CP$OFF 0000                              _GO 00FA  
                            fsr 0004             ___wmul@multiplicand 0049                     Drive@speedH 004B  
                   Drive@speedL 0048                             l217 05F9                             l330 0E58  
                           l336 0E4B                             l265 0E77                             l632 0625  
                           l467 0784                             l476 07BF                             l577 0F00  
                           _GIE 005F                             _RB0 0030                             _RB1 0031  
                           _RB2 0032                   ??_DriveDirect 004B                             _RC2 003A  
                           _RB4 0034                             _RE0 0048                             _RE1 0049  
                           _RE2 004A                    __CFG_CPD$OFF 0000                             u945 064A  
                           u965 0658                             u885 0F01                             u975 066D  
                           u895 0F08                             u985 067F                             _isr 0735  
               __end_of_ADCMain 0EF4                             fsr0 0004                             indf 0000  
                  __CFG_FOSC$HS 0000                  ??_lcdWriteData 0047                    __CFG_LVP$OFF 0000  
                          l2101 04B9                            l2103 04F5                            l2115 050D  
                          l2117 0546                            l2061 0424                            l2127 0571  
                          l2071 0442                            l2039 03E0                            l2057 0413  
                          l2049 03F6                            l1611 0699                            l1603 067E  
                          l2083 045F                            l2067 042B                            l2085 0498  
                          l2069 0441                            l1607 068B                            l1703 0794  
                          l2087 04A3                            l1633 0FF0                            l1625 0FCC  
                          l1705 079E                            l1627 0FDA                            l1563 0EF8  
                          l1723 00FF                            l1707 07A8                            l1637 0FFB  
                          l1741 01E4                            l1717 0098                            l1709 07B2  
                          l1661 05A0                            l1735 01A5                            l1671 05C4  
                          l1911 06F9                            l1593 0646                            l1585 0636  
                          l1753 0262                            l1729 0166                            l1673 05CC  
                          l1665 05AE                            l1595 0656                            l1771 031F  
                          l1747 0223                            l1683 05EC                            l1667 05B6  
                          l1659 058A                            l1931 0703                            l1923 06FF  
                          l1915 06FB                            l1907 06F7                            l1781 036A  
                          l1765 02E0                            l1677 05DA                            l1853 06A9  
                          l1759 02A1                            l1935 070A                            l1927 0701  
                          l1919 06FD                            l1943 0711                            l1871 06B6  
                          l1863 06B2                            l1855 06AE                            l1777 035C  
                          l1953 07E2                            l1945 072B                            l1955 07E3  
                          l1939 070E                            l1883 06BF                            l1875 06B8  
                          l1867 06B4                            l1859 06B0                            l1891 06E3  
                          l1885 06C6                            l1879 06BA                            l1889 06C9  
                          ?_isr 0070                            u1025 0FCF                            u1220 00DD  
                          u1045 0FDB                            u1221 00DE                            u1222 00E3  
                          u1055 0FE7                            u1223 00E4                            u1065 0FF1  
                          u1250 0144                            u1251 0145                            u1252 014A  
                          u1253 014B                            u1190 0076                            u1191 0077  
                          u1192 007C                            u1193 007D                            u1615 03F4  
                          u1705 0518                            u1625 0408                            u1715 0564  
                          u1635 0422                            u1645 0431                            u1807 0E8D  
                          u1817 0EA0                            u1665 046A                            u1737 0375  
                          u1747 03A4                            u1757 03B9                            u1695 04C4  
                          u1767 03CE                            u1777 0EB9                            u1787 06E7  
                          _PEIE 005E                            u1797 072F                            _RCIF 0065  
                          _TMR0 0001                            _TRMT 04C1                    __CFG_WRT$OFF 0000  
                          _radH 0041                            _radL 0042                            _main 036D  
                          _loop 002A                            btemp 007E                            ltemp 007E  
                          start 0012                            ttemp 007E                            wtemp 007E  
                         ??_isr 0076                 __end_of___aldiv 06A2                           ?_main 0070  
                 __CFG_WDTE$OFF 0000                 __end_of___lwdiv 1000                           i1l119 0770  
               __end_of___lwmod 0FC2                   _totalDistTrav 0032                           _RCREG 001A  
                         _RCSTA 0018                           _SPBRG 0099                           _PORTA 0005  
                         _PORTC 0007                           _PORTD 0008                           _PORTE 0009  
                         _TRISA 0085                           _TRISB 0086                           _TRISC 0087  
                         _TRISD 0088                           _TRISE 0089                           _SSPIF 0063  
                         _TXREG 0019                           _TXSTA 0098                           _Drive 0F17  
    __end_of_lcdWriteToDigitBCD 0613                           _count 003E             __end_of_DriveDirect 0F67  
               __end_of_moveCCW 0735                  __pbitbssCOMMON 03E8                  __CFG_BOREN$OFF 0000  
                         pclath 000A                           ltemp0 007E                           ltemp1 0082  
                         ltemp2 0086                           ltemp3 0080                      _LeftSpeedH 0036  
                    _LeftSpeedL 0037                           ttemp0 007E                           ttemp1 0081  
                         ttemp2 0084                           ttemp3 0087                           ttemp4 007F  
                         status 0003                           wtemp0 007E                           wtemp1 0080  
                         wtemp2 0082                           wtemp3 0084                           wtemp4 0086  
                         wtemp5 0088                           wtemp6 007F          DriveDirect@RightSpeedH 004B  
        DriveDirect@RightSpeedL 0048                 __initialization 0015                    __end_of_main 057C  
                     ??_ADCMain 0066        __size_of_lcdWriteControl 0014                          ??_main 0066  
          __end_of_lcdSetCursor 0E4B                          ?_Drive 0048                          _ADCON0 001F  
                        _ADCON1 009F                          _ADRESH 001E                          _ADRESL 009E  
                        i1l2011 0764                          i1l2015 076A                          i1l2007 075C  
                        i1l1981 0FB2                          i1l1975 0F96                          i1l1977 0FA4  
                        i1l1985 0FBD                          u151_25 0FAA                          u152_25 0FB3  
                        u149_25 0F99                          _TMR0IE 005D                          _TMR0IF 005A  
                        _SSPCON 0014                          _SSPBUF 0013                  __CFG_PWRTE$OFF 0000  
              _totalangleTurned 0034                          _adcRAW 0022                       ??___aldiv 0055  
                        ___wmul 0EF4                          _getADC 077B            __end_of_lcdWriteData 0E92  
                     ??___lwdiv 0051                       ??___lwmod 0074                          _moveCW 06A2  
                        _speedH 0043                          _speedL 0044                          _rxbyte 007C  
                   _DriveDirect 0F3F                __end_of_ser_init 0E70                __end_of_setupADC 0EBC  
                     ??_moveCCW 0047                __end_of_setupLCD 0F90                __end_of_setupSPI 0ED4  
                        saved_w 007E                      _adcClosest 006A         __end_of__initialization 002B  
                 __end_of_Drive 0F3F                  __pcstackCOMMON 0070                    __pidataBANK0 07FE  
                       ??_Drive 004B               ??_lcdWriteControl 0047                      __pbssBANK0 0020  
           lcdSetCursor@address 004A                      __pmaintext 036D                         ?___wmul 0047  
                       ?_getADC 0070                      __pintentry 0004           __size_of_lcdSetCursor 0009  
                       _ADCMain 0ED4           __end_of_getSensorData 07FE                         ?_moveCW 0070  
            __size_of_ser_getch 000A              __size_of_ser_putch 000C                     _RightSpeedH 003B  
                   _RightSpeedL 003C                         _SSPSTAT 0094           __size_of_lcdWriteData 0013  
                  _lcdSetCursor 0E42              _lcdWriteToDigitBCD 057C                       ?_ser_init 0070  
                     ?_setupADC 0070                       ?_setupLCD 0070                       ?_setupSPI 0070  
                       ___aldiv 0613                 __size_of___wmul 0023                 __size_of_getADC 0045  
                       ___lwdiv 0FC2                         ___lwmod 0F90             ?_lcdWriteToDigitBCD 004A  
                       _degrees 0026                 __size_of_moveCW 004B                         __ptext1 0E70  
                       __ptext2 0EBC                         __ptext3 0F67                         __ptext4 0EA6  
                       __ptext5 0E61                         __ptext6 06A2                         __ptext7 06ED  
                       __ptext8 07C0                         __ptext9 0E4B                    __size_of_isr 0046  
                       _lowByte 003F                         _moveCCW 06ED                ___aldiv@dividend 0051  
                       clrloop0 0E3B                    _lcdWriteData 0E7F            end_of_initialization 002B  
          ??_lcdWriteToDigitBCD 004C               __end_of_ser_getch 0E55               __end_of_ser_putch 0E61  
                    ??_ser_init 0047                      ??_setupADC 0047                      ??_setupLCD 004A  
                    ??_setupSPI 0047                ___aldiv@quotient 0058                      _time_count 0030  
                  ?_DriveDirect 0048              adcConvertMM@adcRAW 005C                       Drive@radH 0049  
                     Drive@radL 004A                   ?_spi_transfer 0070                 ser_getch@rxbyte 0048  
                 ?_adcConvertMM 005C                 _lcdWriteControl 0E92                  __end_of___wmul 0F17  
                __end_of_getADC 07C0                  __end_of_moveCW 06ED             start_initialization 0015  
                   __end_of_isr 077B                  ??_spi_transfer 0047                  ??_adcConvertMM 005E  
                      ??___wmul 004B                        ??_getADC 0047                     __pdataBANK0 006A  
                      ?_ADCMain 0070                        ??_moveCW 0047                    _negativeFlag 0040  
                   _FLAG_1000MS 03E8                     __pbssCOMMON 007B                       ___latbits 0002  
                 __pcstackBANK0 0047         __end_of_lcdWriteControl 0EA6                ___lwdiv@dividend 004F  
                   _angleTurned 0024                        ?___aldiv 004D               __size_of_ser_init 000F  
                      ?___lwdiv 004D                        ?___lwmod 0070               __size_of_setupADC 0016  
             __size_of_setupLCD 0029               __size_of_setupSPI 0018                        ?_moveCCW 0070  
                __size_of_Drive 0028            __size_of_DriveDirect 0028                ___lwdiv@quotient 0052  
               main@controlByte 0069         lcdWriteControl@databyte 0049                 ___aldiv@divisor 004D  
             interrupt_function 0004                 ___aldiv@counter 0056          __size_of_getSensorData 003E  
                ___wmul@product 004B                      ser_putch@c 0047           getSensorData@packetID 004F  
                     clear_ram0 0E3A                       _ser_getch 0E4B                       _ser_putch 0E55  
                     _stepCount 0045                __size_of_ADCMain 0020            __end_of_spi_transfer 0E7F  
             ___wmul@multiplier 0047                spi_transfer@data 0049                spi_transfer@temp 0048  
          __end_of_adcConvertMM 036D                     _controlByte 003D                        _Distance 0020  
          lcdWriteData@databyte 0049     __size_of_lcdWriteToDigitBCD 0097                      ?_ser_getch 0070  
              ?_lcdWriteControl 0070                      ?_ser_putch 0070                __size_of___aldiv 008F  
              __size_of___lwdiv 003E                __size_of___lwmod 0032                   _getSensorData 07C0  
                   _currentStep 007B  lcdWriteToDigitBCD@TenThouDigit 0052                 ___lwdiv@divisor 004D  
              __size_of_moveCCW 0048                 ___lwdiv@counter 0054                        __ptext10 0F3F  
                      __ptext11 0F17                        __ptext20 0EF4                        __ptext12 0E55  
                      __ptext21 0FC2                        __ptext13 0ED4                        __ptext22 0613  
                      __ptext14 057C                        __ptext23 0735                        __ptext15 0E7F  
                      __ptext24 0F90                        __ptext16 0E42                        __ptext17 0E92  
                      __ptext18 077B                        __ptext19 002F                        _highByte 0046  
                      _distTrav 0028                   __size_of_main 020F                        _ser_init 0E61  
                    _PB6Counter 0038                        _setupADC 0EA6                        _setupLCD 0F67  
                      _setupSPI 0EBC                      _PB7Counter 0039     lcdWriteToDigitBCD@HunsDigit 004E  
                    _PB8Counter 003A     lcdWriteToDigitBCD@OnesDigit 0054                  ?_getSensorData 0049  
   lcdWriteToDigitBCD@TensDigit 004C     lcdWriteToDigitBCD@ThouDigit 0050                        intlevel1 0000  
              ___lwmod@dividend 0072                   ?_lcdSetCursor 0070                     ??_ser_getch 0047  
                   ??_ser_putch 0047             getSensorData@sensor 004D           __size_of_spi_transfer 000F  
         __size_of_adcConvertMM 033E                      _OPTION_REG 0081                 ___lwmod@divisor 0070  
               ___lwmod@counter 0075                    ___aldiv@sign 0057              getSensorData@bytes 0049  
                 ?_lcdWriteData 0070          lcdWriteToDigitBCD@data 004A                    _spi_transfer 0E70  
                ??_lcdSetCursor 004A                    _stepCountNeg 002E                     _stepClosest 002C  
         DriveDirect@LeftSpeedH 0049           DriveDirect@LeftSpeedL 004A                    _adcConvertMM 002F  
