Microchip MPLAB XC8 Compiler V1.38 ()

Linker command line:

--edf=C:\Program Files (x86)\Microchip\xc8\v1.38\dat\en_msgs.txt -cs \
  -h+dist/default/production\iRobot.X.production.sym \
  --cmf=dist/default/production\iRobot.X.production.cmf -z -w9 --norlf \
  -Q16F877A -oC:\Users\Brendan\AppData\Local\Temp\sbfk.2 \
  -Mdist/default/production/iRobot.X.production.map -E1 -ver=XC8 \
  -ACODE=00h-07FFhx4 -ASTRCODE=00h-01FFFh -ASTRING=00h-0FFhx32 \
  -ACONST=00h-0FFhx32 -AENTRY=00h-0FFhx32 -ACOMMON=070h-07Fh \
  -ABANK0=020h-06Fh -ABANK1=0A0h-0EFh -ABANK2=0110h-016Fh \
  -ABANK3=0190h-01EFh -ARAM=020h-06Fh,0A0h-0EFh,0110h-016Fh,0190h-01EFh \
  -AABS1=020h-07Fh,0A0h-0EFh,0110h-016Fh,0190h-01EFh -ASFR0=00h-01Fh \
  -ASFR1=080h-09Fh -ASFR2=0100h-010Fh -ASFR3=0180h-018Fh \
  -preset_vec=00h,intentry,init,end_init -ppowerup=CODE -pcinit=CODE \
  -pfunctab=CODE -ACONFIG=02007h-02007h -pconfig=CONFIG -DCONFIG=2 \
  -AIDLOC=02000h-02003h -pidloc=IDLOC -DIDLOC=2 -AEEDATA=00h-0FFh/02100h \
  -peeprom_data=EEDATA -DEEDATA=2 -DCODE=2 -DSTRCODE=2 -DSTRING=2 -DCONST=2 \
  -DENTRY=2 -k C:\Users\Brendan\AppData\Local\Temp\sbfk.obj \
  dist/default/production\iRobot.X.production.obj 

Object code version is 3.11

Machine type is 16F877A



                Name                               Link     Load   Length Selector   Space Scale
C:\Users\Brendan\AppData\Local\Temp\sbfk.obj
                end_init                              E        E        4        0       0
dist/default/production\iRobot.X.production.obj
                cinit                               7E6      7E6       1A      FCC       0
                intentry                              0        0        E        0       0
                text11                              5B0      5B0       32      B60       0
                text10                              5E2      5E2       3F      BC4       0
                text9                               548      548       13      A90       0
                text8                               621      621       97      C42       0
                text7                               515      515        9      A2A       0
                text6                               52A      52A        F      A54       0
                text5                               51E      51E        C      A3C       0
                text4                               55B      55B       14      AB6       0
                text3                               587      587       29      B0E       0
                text2                               56F      56F       18      ADE       0
                text1                               539      539        F      A72       0
                maintext                            6B8      6B8      12E      D70       0
                cstackBANK0                          39       39       13       20       1
                cstackCOMMON                         70       70        B       70       1
                clrtext                             50D      50D        8      A1A       0
                dataBANK0                            4C       4C        2       20       1
                bssBANK0                             20       20       19       20       1
                bssCOMMON                            7B       7B        2       70       1
                bitbssCOMMON                        3E8       7D        1       70       1     8
                idataBANK0                          50B      50B        2      A16       0

TOTAL           Name                               Link     Load   Length     Space
        CLASS   CODE           
                end_init                              E        E        4         0
                cinit                               7E6      7E6       1A         0
                intentry                              0        0        E         0
                text11                              5B0      5B0       32         0
                text10                              5E2      5E2       3F         0
                text9                               548      548       13         0
                text8                               621      621       97         0
                text7                               515      515        9         0
                text6                               52A      52A        F         0
                text5                               51E      51E        C         0
                text4                               55B      55B       14         0
                text3                               587      587       29         0
                text2                               56F      56F       18         0
                text1                               539      539        F         0
                maintext                            6B8      6B8      12E         0
                clrtext                             50D      50D        8         0
                idataBANK0                          50B      50B        2         0

        CLASS   STRCODE        

        CLASS   STRING         

        CLASS   CONST          

        CLASS   ENTRY          

        CLASS   COMMON         
                cstackCOMMON                         70       70        B         1
                bssCOMMON                            7B       7B        2         1
                bitbssCOMMON                        3E8       7D        1         1

        CLASS   BANK0          
                cstackBANK0                          39       39       13         1
                dataBANK0                            4C       4C        2         1
                bssBANK0                             20       20       19         1

        CLASS   BANK1          

        CLASS   BANK2          

        CLASS   BANK3          

        CLASS   RAM            

        CLASS   ABS1           
                abs_s1                               7E       7E        2         1

        CLASS   SFR0           

        CLASS   SFR1           

        CLASS   SFR2           

        CLASS   SFR3           

        CLASS   CONFIG         

        CLASS   IDLOC          

        CLASS   EEDATA         

        CLASS   STACK          



SEGMENTS        Name                           Load    Length   Top    Selector   Space  Class     Delta

                reset_vec                      000000  000012  000012         0       0  CODE        2
                bssBANK0                       000020  00002E  00004E        20       1  BANK0       1
                cstackCOMMON                   000070  00000E  00007E        70       1  COMMON      1
                idataBANK0                     00050B  000002  00050D       A16       0  CODE        2
                clrtext                        00050D  000008  000515       A1A       0  CODE        2
                text7                          000515  000009  00051E       A2A       0  CODE        2
                text5                          00051E  00000C  00052A       A3C       0  CODE        2
                text6                          00052A  00000F  000539       A54       0  CODE        2
                text1                          000539  00000F  000548       A72       0  CODE        2
                text9                          000548  000013  00055B       A90       0  CODE        2
                text4                          00055B  000014  00056F       AB6       0  CODE        2
                text2                          00056F  000018  000587       ADE       0  CODE        2
                text3                          000587  000029  0005B0       B0E       0  CODE        2
                text11                         0005B0  000032  0005E2       B60       0  CODE        2
                text10                         0005E2  00003F  000621       BC4       0  CODE        2
                text8                          000621  000097  0006B8       C42       0  CODE        2
                maintext                       0006B8  00012E  0007E6       D70       0  CODE        2
                cinit                          0007E6  00001A  000800       FCC       0  CODE        2


UNUSED ADDRESS RANGES

        Name                Unused          Largest block    Delta
        BANK0            004E-006F             22           1
        BANK1            00A0-00EF             50           1
        BANK2            0110-016F             60           1
        BANK3            0190-01EF             60           1
        CODE             0012-050A            4F9           2
                         0800-1FFF            800
        CONFIG           2007-2007              1           2
        CONST            0012-050A            100           2
                         0800-1FFF            100
        EEDATA           2100-21FF            100           2
        ENTRY            0012-050A            100           2
                         0800-1FFF            100
        IDLOC            2000-2003              4           2
        RAM              004E-006F             22           1
                         00A0-00EF             50
                         0110-016F             60
                         0190-01EF             60
        SFR0             0000-001F             20           1
        SFR1             0080-009F             20           1
        SFR2             0100-010F             10           1
        SFR3             0180-018F             10           1
        STRCODE          0012-050A            4F9           2
                         0800-1FFF           1800
        STRING           0012-050A            100           2
                         0800-1FFF            100

                                  Symbol Table

_ADCMain                                         
__CFG_BOREN$OFF                 (abs)        0000
__CFG_CP$OFF                    (abs)        0000
__CFG_CPD$OFF                   (abs)        0000
__CFG_FOSC$HS                   (abs)        0000
__CFG_LVP$OFF                   (abs)        0000
__CFG_PWRTE$OFF                 (abs)        0000
__CFG_WDTE$OFF                  (abs)        0000
__CFG_WRT$OFF                   (abs)        0000
__Habs1                         abs1         0000
__Hbank0                        bank0        0000
__Hbank1                        bank1        0000
__Hbank2                        bank2        0000
__Hbank3                        bank3        0000
__HbitbssCOMMON                 bitbssCOMMON 0000
__HbssBANK0                     bssBANK0     0000
__HbssCOMMON                    bssCOMMON    0000
__Hclrtext                      clrtext      0000
__Hcode                         code         0000
__Hcommon                       common       0000
__Hconfig                       config       0000
__HcstackBANK0                  cstackBANK0  0000
__HcstackCOMMON                 cstackCOMMON 0000
__HdataBANK0                    dataBANK0    0000
__Heeprom_data                  eeprom_data  0000
__Hfunctab                      functab      0000
__HidataBANK0                   idataBANK0   0000
__Hidloc                        idloc        0000
__Hmaintext                     maintext     0000
__Hpowerup                      powerup      0000
__Hram                          ram          0000
__Hreset_vec                    reset_vec    0000
__Hsfr0                         sfr0         0000
__Hsfr1                         sfr1         0000
__Hsfr2                         sfr2         0000
__Hsfr3                         sfr3         0000
__Hspace_2                      (abs)        0000
__Hspace_3                      (abs)        0000
__Hstack                        stack        0000
__Hstrings                      strings      0000
__Htext                         text         0000
__Labs1                         abs1         0000
__Lbank0                        bank0        0000
__Lbank1                        bank1        0000
__Lbank2                        bank2        0000
__Lbank3                        bank3        0000
__LbitbssCOMMON                 bitbssCOMMON 0000
__LbssBANK0                     bssBANK0     0000
__LbssCOMMON                    bssCOMMON    0000
__Lclrtext                      clrtext      0000
__Lcode                         code         0000
__Lcommon                       common       0000
__Lconfig                       config       0000
__LcstackBANK0                  cstackBANK0  0000
__LcstackCOMMON                 cstackCOMMON 0000
__LdataBANK0                    dataBANK0    0000
__Leeprom_data                  eeprom_data  0000
__Lfunctab                      functab      0000
__LidataBANK0                   idataBANK0   0000
__Lidloc                        idloc        0000
__Lintentry                     intentry     0000
__Lmaintext                     maintext     0000
__Lpowerup                      powerup      0000
__Lram                          ram          0000
__Lreset_vec                    reset_vec    0000
__Lsfr0                         sfr0         0000
__Lsfr1                         sfr1         0000
__Lsfr2                         sfr2         0000
__Lsfr3                         sfr3         0000
__Lspace_0                      (abs)        0000
__Lspace_1                      (abs)        0000
__Lspace_2                      (abs)        0000
__Lspace_3                      (abs)        0000
__Lstack                        stack        0000
__Lstrings                      strings      0000
__Ltext                         text         0000
__S3                            (abs)        0000
___int_sp                       stack        0000
___sp                           stack        0000
__pintentry                     intentry     0000
__size_of___lwmod               (abs)        0000
__size_of_isr                   (abs)        0000
__size_of_lcdWriteControl       (abs)        0000
__size_of_lcdWriteData          (abs)        0000
__size_of_lcdWriteToDigitBCD    (abs)        0000
__size_of_main                  (abs)        0000
__size_of_ser_getch             (abs)        0000
__size_of_ser_init              (abs)        0000
__size_of_ser_putch             (abs)        0000
__size_of_setupLCD              (abs)        0000
__size_of_setupSPI              (abs)        0000
__size_of_spi_transfer          (abs)        0000
_moveCCW                                         
_moveCW                                          
_setupADC                                        
interrupt_function              intentry     0000
intlevel0                       functab      0000
intlevel1                       functab      0000
intlevel2                       functab      0000
intlevel3                       functab      0000
intlevel4                       functab      0000
intlevel5                       functab      0000
reset_vec                       reset_vec    0000
stackhi                         (abs)        0000
stacklo                         (abs)        0000
_TMR0                           (abs)        0001
___latbits                      (abs)        0002
_PORTC                          (abs)        0007
_PORTD                          (abs)        0008
_PORTE                          (abs)        0009
_SSPBUF                         (abs)        0013
_SSPCON                         (abs)        0014
_RCSTA                          (abs)        0018
_TXREG                          (abs)        0019
_RCREG                          (abs)        001A
__Hinit                         init         000E
__Hintentry                     intentry     000E
__Lend_init                     end_init     000E
__Linit                         init         000E
start                           init         000E
_Distance                       bssBANK0     0020
__pbssBANK0                     bssBANK0     0020
_adcRAW                         bssBANK0     0022
__Hend_init                     end_init     0012
_degrees                        bssBANK0     0024
_distTrav                       bssBANK0     0026
_lowByte                        bssBANK0     0028
_stepClosest                    bssBANK0     002A
_stepCountNeg                   bssBANK0     002C
_time_count                     bssBANK0     002E
_RB0                            (abs)        0030
_x                              bssBANK0     0030
_RB1                            (abs)        0031
_PB7Counter                     bssBANK0     0032
_PB8Counter                     bssBANK0     0033
_rxbyte                         bssBANK0     0035
_stepCount                      bssBANK0     0036
_highByte                       bssBANK0     0037
__pcstackBANK0                  cstackBANK0  0039
_RC2                            (abs)        003A
lcdWriteControl@databyte        cstackBANK0  003B
lcdWriteData@databyte           cstackBANK0  003B
lcdWriteToDigitBCD@data         cstackBANK0  003C
lcdWriteToDigitBCD@TensDigit    cstackBANK0  003E
lcdWriteToDigitBCD@HunsDigit    cstackBANK0  0040
lcdWriteToDigitBCD@ThouDigit    cstackBANK0  0042
lcdWriteToDigitBCD@TenThouDigit cstackBANK0  0044
lcdWriteToDigitBCD@OnesDigit    cstackBANK0  0046
_RE0                            (abs)        0048
_RE1                            (abs)        0049
_RE2                            (abs)        004A
main@controlByte                cstackBANK0  004B
__pdataBANK0                    dataBANK0    004C
_adcClosest                     dataBANK0    004C
_TMR0IF                         (abs)        005A
_TMR0IE                         (abs)        005D
_PEIE                           (abs)        005E
_GIE                            (abs)        005F
_SSPIF                          (abs)        0063
_RCIF                           (abs)        0065
?___lwmod                       cstackCOMMON 0070
___lwmod@divisor                cstackCOMMON 0070
__pcstackCOMMON                 cstackCOMMON 0070
___lwmod@dividend               cstackCOMMON 0072
___lwmod@counter                cstackCOMMON 0075
__pbssCOMMON                    bssCOMMON    007B
__S1                            (abs)        007E
btemp                           (abs)        007E
ltemp                           (abs)        007E
ltemp0                          (abs)        007E
ltemp3                          (abs)        0080
_OPTION_REG                     (abs)        0081
ltemp1                          (abs)        0082
_TRISB                          (abs)        0086
ltemp2                          (abs)        0086
_TRISC                          (abs)        0087
_TRISD                          (abs)        0088
_TRISE                          (abs)        0089
_SSPSTAT                        (abs)        0094
_TXSTA                          (abs)        0098
_SPBRG                          (abs)        0099
_ADCON1                         (abs)        009F
_FLAG_1000MS                    bitbssCOMMON 03E8
__pbitbssCOMMON                 bitbssCOMMON 03E8
__Hspace_1                      (abs)        03E9
_TRMT                           (abs)        04C1
__Hspace_0                      (abs)        0800
__S0                            (abs)        0800
__pidataBANK0                   idataBANK0   050B
clear_ram0                      clrtext      050D
__ptext7                        text7        0515
_ser_getch                      text7        0515
__end_of_ser_getch              text7        051E
__ptext5                        text5        051E
_ser_putch                      text5        051E
__end_of_ser_putch              text5        052A
__ptext6                        text6        052A
_ser_init                       text6        052A
__end_of_ser_init               text6        0539
__ptext1                        text1        0539
_spi_transfer                   text1        0539
__end_of_spi_transfer           text1        0548
__ptext9                        text9        0548
_lcdWriteData                   text9        0548
__end_of_lcdWriteData           text9        055B
__ptext4                        text4        055B
_lcdWriteControl                text4        055B
__end_of_lcdWriteControl        text4        056F
__ptext2                        text2        056F
_setupSPI                       text2        056F
__end_of_setupSPI               text2        0587
__ptext3                        text3        0587
_setupLCD                       text3        0587
___lwmod                        text11       05B0
__end_of_setupLCD               text3        05B0
__ptext11                       text11       05B0
__end_of___lwmod                text11       05E2
__ptext10                       text10       05E2
_isr                            text10       05E2
__end_of_isr                    text10       0621
__ptext8                        text8        0621
_lcdWriteToDigitBCD             text8        0621
__end_of_lcdWriteToDigitBCD     text8        06B8
__pmaintext                     maintext     06B8
_main                           maintext     06B8
__Lcinit                        cinit        07E6
__end_of_main                   maintext     07E6
__initialization                cinit        07E6
__end_of__initialization        cinit        07FC
end_of_initialization           cinit        07FC
__Hcinit                        cinit        0800
ser_putch@c                     cstackBANK0  0039
ser_getch@rxbyte                cstackBANK0  003A
saved_w                         (abs)        007E
spi_transfer@temp               cstackBANK0  003A
spi_transfer@data               cstackBANK0  003B
ttemp                           (abs)        007E
ttemp0                          (abs)        007E
wtemp                           (abs)        007E
wtemp0                          (abs)        007E
ttemp4                          (abs)        007F
wtemp6                          (abs)        007F
wtemp1                          (abs)        0080
ttemp1                          (abs)        0081
wtemp2                          (abs)        0082
ttemp2                          (abs)        0084
wtemp3                          (abs)        0084
wtemp4                          (abs)        0086
ttemp3                          (abs)        0087
wtemp5                          (abs)        0088
start_initialization            cinit        07E6
